
LCD_RTC_DS1307_DHT11.elf:     file format elf32-avr

Sections:
Idx Name          Size      VMA       LMA       File off  Algn
  0 .data         00000314  00800100  00001338  000013cc  2**0
                  CONTENTS, ALLOC, LOAD, DATA
  1 .text         00001338  00000000  00000000  00000094  2**1
                  CONTENTS, ALLOC, LOAD, READONLY, CODE
  2 .bss          0000001a  00800414  00800414  000016e0  2**0
                  ALLOC
  3 .comment      00000030  00000000  00000000  000016e0  2**0
                  CONTENTS, READONLY
  4 .note.gnu.avr.deviceinfo 00000040  00000000  00000000  00001710  2**2
                  CONTENTS, READONLY
  5 .debug_aranges 000003c8  00000000  00000000  00001750  2**0
                  CONTENTS, READONLY, DEBUGGING
  6 .debug_info   00005568  00000000  00000000  00001b18  2**0
                  CONTENTS, READONLY, DEBUGGING
  7 .debug_abbrev 00001b32  00000000  00000000  00007080  2**0
                  CONTENTS, READONLY, DEBUGGING
  8 .debug_line   000027bd  00000000  00000000  00008bb2  2**0
                  CONTENTS, READONLY, DEBUGGING
  9 .debug_frame  000008ec  00000000  00000000  0000b370  2**2
                  CONTENTS, READONLY, DEBUGGING
 10 .debug_str    00000b9e  00000000  00000000  0000bc5c  2**0
                  CONTENTS, READONLY, DEBUGGING
 11 .debug_loc    00001f9f  00000000  00000000  0000c7fa  2**0
                  CONTENTS, READONLY, DEBUGGING
 12 .debug_ranges 000003b8  00000000  00000000  0000e799  2**0
                  CONTENTS, READONLY, DEBUGGING

Disassembly of section .text:

00000000 <__vectors>:
       0:	0c 94 4e 00 	jmp	0x9c	; 0x9c <__ctors_end>
       4:	0c 94 68 03 	jmp	0x6d0	; 0x6d0 <__vector_1>
       8:	0c 94 6b 00 	jmp	0xd6	; 0xd6 <__bad_interrupt>
       c:	0c 94 6b 00 	jmp	0xd6	; 0xd6 <__bad_interrupt>
      10:	0c 94 6b 00 	jmp	0xd6	; 0xd6 <__bad_interrupt>
      14:	0c 94 9e 03 	jmp	0x73c	; 0x73c <__vector_5>
      18:	0c 94 8b 04 	jmp	0x916	; 0x916 <__vector_6>
      1c:	0c 94 6b 00 	jmp	0xd6	; 0xd6 <__bad_interrupt>
      20:	0c 94 6b 00 	jmp	0xd6	; 0xd6 <__bad_interrupt>
      24:	0c 94 6b 00 	jmp	0xd6	; 0xd6 <__bad_interrupt>
      28:	0c 94 6b 00 	jmp	0xd6	; 0xd6 <__bad_interrupt>
      2c:	0c 94 6b 00 	jmp	0xd6	; 0xd6 <__bad_interrupt>
      30:	0c 94 6b 00 	jmp	0xd6	; 0xd6 <__bad_interrupt>
      34:	0c 94 6b 00 	jmp	0xd6	; 0xd6 <__bad_interrupt>
      38:	0c 94 6b 00 	jmp	0xd6	; 0xd6 <__bad_interrupt>
      3c:	0c 94 6b 00 	jmp	0xd6	; 0xd6 <__bad_interrupt>
      40:	0c 94 6b 00 	jmp	0xd6	; 0xd6 <__bad_interrupt>
      44:	0c 94 6b 00 	jmp	0xd6	; 0xd6 <__bad_interrupt>
      48:	0c 94 6b 00 	jmp	0xd6	; 0xd6 <__bad_interrupt>
      4c:	0c 94 6b 00 	jmp	0xd6	; 0xd6 <__bad_interrupt>
      50:	0c 94 6b 00 	jmp	0xd6	; 0xd6 <__bad_interrupt>
      54:	0c 94 6b 00 	jmp	0xd6	; 0xd6 <__bad_interrupt>
      58:	0c 94 6b 00 	jmp	0xd6	; 0xd6 <__bad_interrupt>
      5c:	0c 94 6b 00 	jmp	0xd6	; 0xd6 <__bad_interrupt>
      60:	0c 94 6b 00 	jmp	0xd6	; 0xd6 <__bad_interrupt>
      64:	0c 94 6b 00 	jmp	0xd6	; 0xd6 <__bad_interrupt>
      68:	3e 02       	muls	r19, r30
      6a:	47 02       	muls	r20, r23
      6c:	50 02       	muls	r21, r16
      6e:	59 02       	muls	r21, r25
      70:	62 02       	muls	r22, r18
      72:	6b 02       	muls	r22, r27
      74:	74 02       	muls	r23, r20
      76:	67 04       	cpc	r6, r7
      78:	6b 04       	cpc	r6, r11
      7a:	67 04       	cpc	r6, r7
      7c:	6f 04       	cpc	r6, r15
      7e:	67 04       	cpc	r6, r7
      80:	6f 04       	cpc	r6, r15
      82:	67 04       	cpc	r6, r7
      84:	67 04       	cpc	r6, r7
      86:	6f 04       	cpc	r6, r15
      88:	67 04       	cpc	r6, r7
      8a:	6f 04       	cpc	r6, r15
      8c:	67 04       	cpc	r6, r7
      8e:	27 06       	cpc	r2, r23
      90:	30 06       	cpc	r3, r16
      92:	39 06       	cpc	r3, r25
      94:	42 06       	cpc	r4, r18
      96:	4b 06       	cpc	r4, r27
      98:	54 06       	cpc	r5, r20
      9a:	5d 06       	cpc	r5, r29

0000009c <__ctors_end>:
      9c:	11 24       	eor	r1, r1
      9e:	1f be       	out	0x3f, r1	; 63
      a0:	cf ef       	ldi	r28, 0xFF	; 255
      a2:	d8 e0       	ldi	r29, 0x08	; 8
      a4:	de bf       	out	0x3e, r29	; 62
      a6:	cd bf       	out	0x3d, r28	; 61

000000a8 <__do_copy_data>:
      a8:	14 e0       	ldi	r17, 0x04	; 4
      aa:	a0 e0       	ldi	r26, 0x00	; 0
      ac:	b1 e0       	ldi	r27, 0x01	; 1
      ae:	e8 e3       	ldi	r30, 0x38	; 56
      b0:	f3 e1       	ldi	r31, 0x13	; 19
      b2:	02 c0       	rjmp	.+4      	; 0xb8 <__do_copy_data+0x10>
      b4:	05 90       	lpm	r0, Z+
      b6:	0d 92       	st	X+, r0
      b8:	a4 31       	cpi	r26, 0x14	; 20
      ba:	b1 07       	cpc	r27, r17
      bc:	d9 f7       	brne	.-10     	; 0xb4 <__do_copy_data+0xc>

000000be <__do_clear_bss>:
      be:	24 e0       	ldi	r18, 0x04	; 4
      c0:	a4 e1       	ldi	r26, 0x14	; 20
      c2:	b4 e0       	ldi	r27, 0x04	; 4
      c4:	01 c0       	rjmp	.+2      	; 0xc8 <.do_clear_bss_start>

000000c6 <.do_clear_bss_loop>:
      c6:	1d 92       	st	X+, r1

000000c8 <.do_clear_bss_start>:
      c8:	ae 32       	cpi	r26, 0x2E	; 46
      ca:	b2 07       	cpc	r27, r18
      cc:	e1 f7       	brne	.-8      	; 0xc6 <.do_clear_bss_loop>
      ce:	0e 94 79 07 	call	0xef2	; 0xef2 <main>
      d2:	0c 94 9a 09 	jmp	0x1334	; 0x1334 <_exit>

000000d6 <__bad_interrupt>:
      d6:	0c 94 00 00 	jmp	0	; 0x0 <__vectors>

000000da <LCDconfig>:
PORTD for LCD
----------------*/
void LCDconfig()
{
// Data lines of nibble - Output
	lcd_D7_ddr |= _BV(lcd_D7_bit);
      da:	22 9a       	sbi	0x04, 2	; 4
	lcd_D6_ddr |= _BV(lcd_D6_bit);
      dc:	23 9a       	sbi	0x04, 3	; 4
	lcd_D5_ddr |= _BV(lcd_D5_bit);
      de:	24 9a       	sbi	0x04, 4	; 4
	lcd_D4_ddr |= _BV(lcd_D4_bit);
      e0:	25 9a       	sbi	0x04, 5	; 4

// E pin (Enable) - Output
	lcd_E_ddr |= _BV(lcd_E_bit);
      e2:	54 9a       	sbi	0x0a, 4	; 10
	//turn off lcd_E
	lcd_E_port &= ~_BV(lcd_E_bit);
      e4:	5c 98       	cbi	0x0b, 4	; 11


// RS pin (Register Select) - Output
	lcd_RS_ddr |= _BV(lcd_RS_bit);
      e6:	53 9a       	sbi	0x0a, 3	; 10
	//turn off lcd_RS
	lcd_RS_port &= ~_BV(lcd_RS_bit);
      e8:	5b 98       	cbi	0x0b, 3	; 11

// Back light cathode pin (K) - Output
	lcd_Backlight_ddr |= _BV(lcd_Backlight_bit);
      ea:	21 9a       	sbi	0x04, 1	; 4
	// Turn off back light
	// for it is GND or cathode pin, HIGH make it off
	lcd_Backlight_port |= _BV(lcd_Backlight_bit);
      ec:	29 9a       	sbi	0x05, 1	; 5

// VDD pin (Power Supply) - Output
	// added by Insoo (Jul 11, 2017) to control LCD power consumption while sleep
	lcd_VDD_ddr |= _BV(lcd_VDD_bit);
      ee:	51 9a       	sbi	0x0a, 1	; 10
      f0:	08 95       	ret

000000f2 <SwitchConfig>:
PORTB for the button/tactile switch
----------------*/
void SwitchConfig()
{
	//Tactile switch1 - Input
	tactile_Switch_ddr &= ~_BV(tactile_Switch_bit);
      f2:	56 98       	cbi	0x0a, 6	; 10

	//Tactile switch2 - Input
	tactile_Switch2_ddr &= ~_BV(tactile_Switch2_bit);
      f4:	57 98       	cbi	0x0a, 7	; 10
      f6:	08 95       	ret

000000f8 <RTC_DS1307config>:
----------------*/
void RTC_DS1307config()
{
	// DS1307 VCC pin (Power Supply) - Output
	//added by Insoo (Jul 11, 2017)
	DS1307_VCC_ddr |= _BV(DS1307_VCC_bit);
      f8:	20 9a       	sbi	0x04, 0	; 4
	//turn off DS1307 RTC chip power
	//DS1307_VCC_port &= ~_BV(DS1307_VCC_bit);
	//turn on DS1307 RTC chip power to save coin cell battery
	DS1307_VCC_port |= _BV(DS1307_VCC_bit);
      fa:	28 9a       	sbi	0x05, 0	; 5

	//added by Insoo (Jan 30, 2019)
	DS1307_SQW_ddr &= ~_BV(DS1307_SQW_bit); //Input for Square Wave signal from DS1307
      fc:	52 98       	cbi	0x0a, 2	; 10
      fe:	08 95       	ret

00000100 <DHT11config>:
----------------*/
void DHT11config()
{
	// DHT11 (temp & humid sensor) VCC pin (Power Supply) - Output
	//added by Insoo (Jul 14, 2017)
	DHT_VCC_ddr |= _BV(DHT_VCC_bit);
     100:	55 9a       	sbi	0x0a, 5	; 10
	//turn off DS1307 RTC chip power
	DHT_VCC_port &= ~_BV(DHT_VCC_bit);
     102:	5d 98       	cbi	0x0b, 5	; 11
     104:	08 95       	ret

00000106 <BuzzerConfig>:
}//DHT11config

void BuzzerConfig()
{
	//Buzzer - Output
	BUZZER_ddr |= _BV(BUZZER_bit);
     106:	50 9a       	sbi	0x0a, 0	; 10
	//turn off buzzer
	BUZZER_port &= ~_BV(BUZZER_bit);
     108:	58 98       	cbi	0x0b, 0	; 11
     10a:	08 95       	ret

0000010c <debugPinConfig>:
PORTB for the debug pin 
----------------*/
void debugPinConfig()
{
	// debug pin - Output
	debug_PIN_ddr |= _BV(debug_PIN_bit);
     10c:	26 9a       	sbi	0x04, 6	; 4
	//turn off debug_PIN_bit
	debug_PIN_port &= ~_BV(debug_PIN_bit);
     10e:	2e 98       	cbi	0x05, 6	; 5
     110:	08 95       	ret

00000112 <config>:
#include <util/delay.h>

//------------------------------------
void config()
{
	LCDconfig();
     112:	0e 94 6d 00 	call	0xda	; 0xda <LCDconfig>
	SwitchConfig();
     116:	0e 94 79 00 	call	0xf2	; 0xf2 <SwitchConfig>
	RTC_DS1307config();
     11a:	0e 94 7c 00 	call	0xf8	; 0xf8 <RTC_DS1307config>
	DHT11config();
     11e:	0e 94 80 00 	call	0x100	; 0x100 <DHT11config>
	BuzzerConfig();
     122:	0e 94 83 00 	call	0x106	; 0x106 <BuzzerConfig>
	debugPinConfig();
     126:	0e 94 86 00 	call	0x10c	; 0x10c <debugPinConfig>
     12a:	08 95       	ret

0000012c <getDHT>:
char strTemp[3], strHumid[3];

//-------------------------------------------
//void getDHT(uint16_t *temp, uint16_t *humid)
void getDHT()
{
     12c:	cf 93       	push	r28
     12e:	df 93       	push	r29
     130:	00 d0       	rcall	.+0      	; 0x132 <getDHT+0x6>
     132:	00 d0       	rcall	.+0      	; 0x134 <getDHT+0x8>
     134:	cd b7       	in	r28, 0x3d	; 61
     136:	de b7       	in	r29, 0x3e	; 62
	TinuDHT tinudht;

	DHT_VCC_ddr |= _BV(DHT_VCC_bit);
     138:	55 9a       	sbi	0x0a, 5	; 10
	DHT_VCC_port |= _BV(DHT_VCC_bit);
     13a:	5d 9a       	sbi	0x0b, 5	; 11
	#else
		//round up by default
		__ticks_dc = (uint32_t)(ceil(fabs(__tmp)));
	#endif

	__builtin_avr_delay_cycles(__ticks_dc);
     13c:	2f e9       	ldi	r18, 0x9F	; 159
     13e:	86 e8       	ldi	r24, 0x86	; 134
     140:	91 e0       	ldi	r25, 0x01	; 1
     142:	21 50       	subi	r18, 0x01	; 1
     144:	80 40       	sbci	r24, 0x00	; 0
     146:	90 40       	sbci	r25, 0x00	; 0
     148:	e1 f7       	brne	.-8      	; 0x142 <getDHT+0x16>
     14a:	00 c0       	rjmp	.+0      	; 0x14c <getDHT+0x20>
     14c:	00 00       	nop
	_delay_ms(500);
	tinudht_read(&tinudht, DHT_SIG_bit);
     14e:	67 e0       	ldi	r22, 0x07	; 7
     150:	ce 01       	movw	r24, r28
     152:	01 96       	adiw	r24, 0x01	; 1
     154:	0e 94 e2 07 	call	0xfc4	; 0xfc4 <tinudht_read>
     158:	2f e9       	ldi	r18, 0x9F	; 159
     15a:	86 e8       	ldi	r24, 0x86	; 134
     15c:	91 e0       	ldi	r25, 0x01	; 1
     15e:	21 50       	subi	r18, 0x01	; 1
     160:	80 40       	sbci	r24, 0x00	; 0
     162:	90 40       	sbci	r25, 0x00	; 0
     164:	e1 f7       	brne	.-8      	; 0x15e <getDHT+0x32>
     166:	00 c0       	rjmp	.+0      	; 0x168 <getDHT+0x3c>
     168:	00 00       	nop
	_delay_ms(500);
	tinudht_read(&tinudht, DHT_SIG_bit);
     16a:	67 e0       	ldi	r22, 0x07	; 7
     16c:	ce 01       	movw	r24, r28
     16e:	01 96       	adiw	r24, 0x01	; 1
     170:	0e 94 e2 07 	call	0xfc4	; 0xfc4 <tinudht_read>
	temp = tinudht.temperature;
     174:	8b 81       	ldd	r24, Y+3	; 0x03
     176:	80 93 25 04 	sts	0x0425, r24	; 0x800425 <temp>
	humid = tinudht.humidity;
     17a:	99 81       	ldd	r25, Y+1	; 0x01
     17c:	90 93 29 04 	sts	0x0429, r25	; 0x800429 <humid>
    } else if (__radix < 2 || __radix > 36) {
	*__s = 0;
	return __s;
    } else {
	extern char *__itoa_ncheck (int, char *, unsigned char);
	return __itoa_ncheck (__val, __s, __radix);
     180:	4a e0       	ldi	r20, 0x0A	; 10
     182:	66 e2       	ldi	r22, 0x26	; 38
     184:	74 e0       	ldi	r23, 0x04	; 4
     186:	90 e0       	ldi	r25, 0x00	; 0
     188:	0e 94 65 09 	call	0x12ca	; 0x12ca <__itoa_ncheck>

	// display the first line of information
	itoa(temp, strTemp, 10);
	itoa(humid, strHumid, 10);
     18c:	80 91 29 04 	lds	r24, 0x0429	; 0x800429 <humid>
     190:	4a e0       	ldi	r20, 0x0A	; 10
     192:	62 e2       	ldi	r22, 0x22	; 34
     194:	74 e0       	ldi	r23, 0x04	; 4
     196:	90 e0       	ldi	r25, 0x00	; 0
     198:	0e 94 65 09 	call	0x12ca	; 0x12ca <__itoa_ncheck>

     19c:	0f 90       	pop	r0
     19e:	0f 90       	pop	r0
     1a0:	0f 90       	pop	r0
     1a2:	0f 90       	pop	r0
     1a4:	df 91       	pop	r29
     1a6:	cf 91       	pop	r28
     1a8:	08 95       	ret

000001aa <DS1307_GetTime>:
	}
	else
	{
		//LCD_Line(0);
		lcd_write_instruction_4d(lcd_SetCursor | lcd_LineOne);
		lcd_write_string_4d((uint8_t *)"L");
     1aa:	ef 92       	push	r14
     1ac:	ff 92       	push	r15
     1ae:	0f 93       	push	r16
     1b0:	1f 93       	push	r17
     1b2:	cf 93       	push	r28
     1b4:	df 93       	push	r29
     1b6:	ec 01       	movw	r28, r24
     1b8:	7b 01       	movw	r14, r22
     1ba:	8a 01       	movw	r16, r20
     1bc:	62 e0       	ldi	r22, 0x02	; 2
     1be:	80 ed       	ldi	r24, 0xD0	; 208
     1c0:	0e 94 53 03 	call	0x6a6	; 0x6a6 <I2C_ReadRegister>
     1c4:	88 83       	st	Y, r24
     1c6:	61 e0       	ldi	r22, 0x01	; 1
     1c8:	80 ed       	ldi	r24, 0xD0	; 208
     1ca:	0e 94 53 03 	call	0x6a6	; 0x6a6 <I2C_ReadRegister>
     1ce:	f7 01       	movw	r30, r14
     1d0:	80 83       	st	Z, r24
     1d2:	60 e0       	ldi	r22, 0x00	; 0
     1d4:	80 ed       	ldi	r24, 0xD0	; 208
     1d6:	0e 94 53 03 	call	0x6a6	; 0x6a6 <I2C_ReadRegister>
     1da:	f8 01       	movw	r30, r16
     1dc:	80 83       	st	Z, r24
     1de:	98 81       	ld	r25, Y
     1e0:	96 ff       	sbrs	r25, 6
     1e2:	03 c0       	rjmp	.+6      	; 0x1ea <DS1307_GetTime+0x40>
     1e4:	9f 71       	andi	r25, 0x1F	; 31
     1e6:	98 83       	st	Y, r25
     1e8:	02 c0       	rjmp	.+4      	; 0x1ee <DS1307_GetTime+0x44>
     1ea:	9f 73       	andi	r25, 0x3F	; 63
     1ec:	98 83       	st	Y, r25
     1ee:	df 91       	pop	r29
     1f0:	cf 91       	pop	r28
     1f2:	1f 91       	pop	r17
     1f4:	0f 91       	pop	r16
     1f6:	ff 90       	pop	r15
     1f8:	ef 90       	pop	r14
     1fa:	08 95       	ret

000001fc <DS1307_GetDate>:
     1fc:	ef 92       	push	r14
     1fe:	ff 92       	push	r15
     200:	0f 93       	push	r16
     202:	1f 93       	push	r17
     204:	cf 93       	push	r28
     206:	df 93       	push	r29
     208:	7c 01       	movw	r14, r24
     20a:	8b 01       	movw	r16, r22
     20c:	ea 01       	movw	r28, r20
     20e:	65 e0       	ldi	r22, 0x05	; 5
     210:	80 ed       	ldi	r24, 0xD0	; 208
     212:	0e 94 53 03 	call	0x6a6	; 0x6a6 <I2C_ReadRegister>
     216:	f7 01       	movw	r30, r14
     218:	80 83       	st	Z, r24
     21a:	64 e0       	ldi	r22, 0x04	; 4
     21c:	80 ed       	ldi	r24, 0xD0	; 208
     21e:	0e 94 53 03 	call	0x6a6	; 0x6a6 <I2C_ReadRegister>
     222:	f8 01       	movw	r30, r16
     224:	80 83       	st	Z, r24
     226:	66 e0       	ldi	r22, 0x06	; 6
     228:	80 ed       	ldi	r24, 0xD0	; 208
     22a:	0e 94 53 03 	call	0x6a6	; 0x6a6 <I2C_ReadRegister>
     22e:	88 83       	st	Y, r24
     230:	df 91       	pop	r29
     232:	cf 91       	pop	r28
     234:	1f 91       	pop	r17
     236:	0f 91       	pop	r16
     238:	ff 90       	pop	r15
     23a:	ef 90       	pop	r14
     23c:	08 95       	ret

0000023e <DS1307_GetWkDay>:
     23e:	cf 93       	push	r28
     240:	df 93       	push	r29
     242:	ec 01       	movw	r28, r24
     244:	63 e0       	ldi	r22, 0x03	; 3
     246:	80 ed       	ldi	r24, 0xD0	; 208
     248:	0e 94 53 03 	call	0x6a6	; 0x6a6 <I2C_ReadRegister>
     24c:	88 83       	st	Y, r24
     24e:	df 91       	pop	r29
     250:	cf 91       	pop	r28
     252:	08 95       	ret

00000254 <adjustHour>:
	//numSQW++;
}//testCountSQW

//-----------------------------------
void adjustHour()
{
     254:	0f 93       	push	r16
     256:	1f 93       	push	r17
     258:	cf 93       	push	r28
     25a:	df 93       	push	r29
     25c:	00 d0       	rcall	.+0      	; 0x25e <adjustHour+0xa>
     25e:	1f 92       	push	r1
     260:	cd b7       	in	r28, 0x3d	; 61
     262:	de b7       	in	r29, 0x3e	; 62
	uint8_t DONE=0, val;
	uint8_t curLoop=0, preLoop=0, lapse=0;
     264:	00 e0       	ldi	r16, 0x00	; 0
     266:	10 e0       	ldi	r17, 0x00	; 0
	char strHour[3];

	while (!DONE)
	{
		// set cursor to start of first line
		lcd_write_instruction_4d(lcd_SetCursor | lcd_LineOne);
     268:	80 e8       	ldi	r24, 0x80	; 128
     26a:	0e 94 13 05 	call	0xa26	; 0xa26 <lcd_write_instruction_4d>
	#else
		//round up by default
		__ticks_dc = (uint32_t)(ceil(fabs(__tmp)));
	#endif

	__builtin_avr_delay_cycles(__ticks_dc);
     26e:	84 e1       	ldi	r24, 0x14	; 20
     270:	8a 95       	dec	r24
     272:	f1 f7       	brne	.-4      	; 0x270 <adjustHour+0x1c>
		_delay_us(DELAY_INST);                                  // 40 uS delay (min)
		// display the first line of information
		lcd_write_string_4d((uint8_t *)"Hour: ");
     274:	81 eb       	ldi	r24, 0xB1	; 177
     276:	93 e0       	ldi	r25, 0x03	; 3
     278:	0e 94 e4 04 	call	0x9c8	; 0x9c8 <lcd_write_string_4d>
		itoa(hour, strHour, 10);
     27c:	80 91 1e 04 	lds	r24, 0x041E	; 0x80041e <hour>
     280:	4a e0       	ldi	r20, 0x0A	; 10
     282:	be 01       	movw	r22, r28
     284:	6f 5f       	subi	r22, 0xFF	; 255
     286:	7f 4f       	sbci	r23, 0xFF	; 255
     288:	08 2e       	mov	r0, r24
     28a:	00 0c       	add	r0, r0
     28c:	99 0b       	sbc	r25, r25
     28e:	0e 94 65 09 	call	0x12ca	; 0x12ca <__itoa_ncheck>
		lcd_write_string_4d((uint8_t *)strHour);
     292:	ce 01       	movw	r24, r28
     294:	01 96       	adiw	r24, 0x01	; 1
     296:	0e 94 e4 04 	call	0x9c8	; 0x9c8 <lcd_write_string_4d>
		lcd_write_string_4d((uint8_t *)" ");
     29a:	83 ee       	ldi	r24, 0xE3	; 227
     29c:	93 e0       	ldi	r25, 0x03	; 3
     29e:	0e 94 e4 04 	call	0x9c8	; 0x9c8 <lcd_write_string_4d>
		val = tactile_Switch_port & _BV(tactile_Switch_bit);
     2a2:	89 b1       	in	r24, 0x09	; 9
	#else
		//round up by default
		__ticks_dc = (uint32_t)(ceil(fabs(__tmp)));
	#endif

	__builtin_avr_delay_cycles(__ticks_dc);
     2a4:	e7 ea       	ldi	r30, 0xA7	; 167
     2a6:	f1 e6       	ldi	r31, 0x61	; 97
     2a8:	31 97       	sbiw	r30, 0x01	; 1
     2aa:	f1 f7       	brne	.-4      	; 0x2a8 <adjustHour+0x54>
     2ac:	00 c0       	rjmp	.+0      	; 0x2ae <adjustHour+0x5a>
     2ae:	00 00       	nop
		_delay_ms(100);
		if (val == 0)
     2b0:	86 fd       	sbrc	r24, 6
     2b2:	0c c0       	rjmp	.+24     	; 0x2cc <adjustHour+0x78>
		{
			hour++;
     2b4:	80 91 1e 04 	lds	r24, 0x041E	; 0x80041e <hour>
     2b8:	8f 5f       	subi	r24, 0xFF	; 255
			if (hour > 23)
     2ba:	88 31       	cpi	r24, 0x18	; 24
     2bc:	24 f4       	brge	.+8      	; 0x2c6 <adjustHour+0x72>
		lcd_write_string_4d((uint8_t *)" ");
		val = tactile_Switch_port & _BV(tactile_Switch_bit);
		_delay_ms(100);
		if (val == 0)
		{
			hour++;
     2be:	80 93 1e 04 	sts	0x041E, r24	; 0x80041e <hour>
     2c2:	01 2f       	mov	r16, r17
     2c4:	03 c0       	rjmp	.+6      	; 0x2cc <adjustHour+0x78>
			if (hour > 23)
			hour=0;
     2c6:	10 92 1e 04 	sts	0x041E, r1	; 0x80041e <hour>
     2ca:	01 2f       	mov	r16, r17
			preLoop = curLoop;
		}
		curLoop++;
     2cc:	1f 5f       	subi	r17, 0xFF	; 255
		lapse = curLoop - preLoop;
     2ce:	81 2f       	mov	r24, r17
     2d0:	80 1b       	sub	r24, r16
		if (lapse > adjustTimeInterval)
     2d2:	89 30       	cpi	r24, 0x09	; 9
     2d4:	38 f4       	brcc	.+14     	; 0x2e4 <adjustHour+0x90>
     2d6:	81 e1       	ldi	r24, 0x11	; 17
     2d8:	9a e7       	ldi	r25, 0x7A	; 122
     2da:	01 97       	sbiw	r24, 0x01	; 1
     2dc:	f1 f7       	brne	.-4      	; 0x2da <adjustHour+0x86>
     2de:	00 c0       	rjmp	.+0      	; 0x2e0 <adjustHour+0x8c>
     2e0:	00 00       	nop
     2e2:	c2 cf       	rjmp	.-124    	; 0x268 <adjustHour+0x14>
     2e4:	e1 e1       	ldi	r30, 0x11	; 17
     2e6:	fa e7       	ldi	r31, 0x7A	; 122
     2e8:	31 97       	sbiw	r30, 0x01	; 1
     2ea:	f1 f7       	brne	.-4      	; 0x2e8 <adjustHour+0x94>
     2ec:	00 c0       	rjmp	.+0      	; 0x2ee <adjustHour+0x9a>
     2ee:	00 00       	nop
		DONE = 1;
		_delay_ms(halfSec/4);
	}//while (!DONE)
}//adjustHour
     2f0:	0f 90       	pop	r0
     2f2:	0f 90       	pop	r0
     2f4:	0f 90       	pop	r0
     2f6:	df 91       	pop	r29
     2f8:	cf 91       	pop	r28
     2fa:	1f 91       	pop	r17
     2fc:	0f 91       	pop	r16
     2fe:	08 95       	ret

00000300 <adjustMin>:

//-----------------------------------
void adjustMin()
{
     300:	0f 93       	push	r16
     302:	1f 93       	push	r17
     304:	cf 93       	push	r28
     306:	df 93       	push	r29
     308:	00 d0       	rcall	.+0      	; 0x30a <adjustMin+0xa>
     30a:	1f 92       	push	r1
     30c:	cd b7       	in	r28, 0x3d	; 61
     30e:	de b7       	in	r29, 0x3e	; 62
	uint8_t DONE=0, val;
	uint8_t curLoop=0, preLoop=0, lapse=0;
     310:	00 e0       	ldi	r16, 0x00	; 0
     312:	10 e0       	ldi	r17, 0x00	; 0
	char strMin[3];

	while (!DONE)
	{
		// set cursor to start of first line
		lcd_write_instruction_4d(lcd_SetCursor | lcd_LineOne);
     314:	80 e8       	ldi	r24, 0x80	; 128
     316:	0e 94 13 05 	call	0xa26	; 0xa26 <lcd_write_instruction_4d>
	#else
		//round up by default
		__ticks_dc = (uint32_t)(ceil(fabs(__tmp)));
	#endif

	__builtin_avr_delay_cycles(__ticks_dc);
     31a:	84 e1       	ldi	r24, 0x14	; 20
     31c:	8a 95       	dec	r24
     31e:	f1 f7       	brne	.-4      	; 0x31c <adjustMin+0x1c>
		_delay_us(DELAY_INST);                                  // 40 uS delay (min)
		// display the first line of information
		lcd_write_string_4d((uint8_t *)"Min: ");
     320:	88 eb       	ldi	r24, 0xB8	; 184
     322:	93 e0       	ldi	r25, 0x03	; 3
     324:	0e 94 e4 04 	call	0x9c8	; 0x9c8 <lcd_write_string_4d>
		itoa(min, strMin, 10);
     328:	80 91 1d 04 	lds	r24, 0x041D	; 0x80041d <min>
     32c:	4a e0       	ldi	r20, 0x0A	; 10
     32e:	be 01       	movw	r22, r28
     330:	6f 5f       	subi	r22, 0xFF	; 255
     332:	7f 4f       	sbci	r23, 0xFF	; 255
     334:	08 2e       	mov	r0, r24
     336:	00 0c       	add	r0, r0
     338:	99 0b       	sbc	r25, r25
     33a:	0e 94 65 09 	call	0x12ca	; 0x12ca <__itoa_ncheck>
		lcd_write_string_4d((uint8_t *)strMin);
     33e:	ce 01       	movw	r24, r28
     340:	01 96       	adiw	r24, 0x01	; 1
     342:	0e 94 e4 04 	call	0x9c8	; 0x9c8 <lcd_write_string_4d>
		lcd_write_string_4d((uint8_t *)" ");
     346:	83 ee       	ldi	r24, 0xE3	; 227
     348:	93 e0       	ldi	r25, 0x03	; 3
     34a:	0e 94 e4 04 	call	0x9c8	; 0x9c8 <lcd_write_string_4d>
		val = tactile_Switch_port & _BV(tactile_Switch_bit);
     34e:	89 b1       	in	r24, 0x09	; 9
	#else
		//round up by default
		__ticks_dc = (uint32_t)(ceil(fabs(__tmp)));
	#endif

	__builtin_avr_delay_cycles(__ticks_dc);
     350:	e7 ea       	ldi	r30, 0xA7	; 167
     352:	f1 e6       	ldi	r31, 0x61	; 97
     354:	31 97       	sbiw	r30, 0x01	; 1
     356:	f1 f7       	brne	.-4      	; 0x354 <adjustMin+0x54>
     358:	00 c0       	rjmp	.+0      	; 0x35a <adjustMin+0x5a>
     35a:	00 00       	nop
		_delay_ms(100);
		if (val == 0)
     35c:	86 fd       	sbrc	r24, 6
     35e:	0c c0       	rjmp	.+24     	; 0x378 <adjustMin+0x78>
		{
			min++;
     360:	80 91 1d 04 	lds	r24, 0x041D	; 0x80041d <min>
     364:	8f 5f       	subi	r24, 0xFF	; 255
			if (min > 59)
     366:	8c 33       	cpi	r24, 0x3C	; 60
     368:	24 f4       	brge	.+8      	; 0x372 <adjustMin+0x72>
		lcd_write_string_4d((uint8_t *)" ");
		val = tactile_Switch_port & _BV(tactile_Switch_bit);
		_delay_ms(100);
		if (val == 0)
		{
			min++;
     36a:	80 93 1d 04 	sts	0x041D, r24	; 0x80041d <min>
     36e:	01 2f       	mov	r16, r17
     370:	03 c0       	rjmp	.+6      	; 0x378 <adjustMin+0x78>
			if (min > 59)
			min=0;
     372:	10 92 1d 04 	sts	0x041D, r1	; 0x80041d <min>
     376:	01 2f       	mov	r16, r17
			preLoop = curLoop;
		}
		curLoop++;
     378:	1f 5f       	subi	r17, 0xFF	; 255
		lapse = curLoop - preLoop;
     37a:	81 2f       	mov	r24, r17
     37c:	80 1b       	sub	r24, r16
		if (lapse > adjustTimeInterval)
     37e:	89 30       	cpi	r24, 0x09	; 9
     380:	38 f4       	brcc	.+14     	; 0x390 <adjustMin+0x90>
     382:	81 e1       	ldi	r24, 0x11	; 17
     384:	9a e7       	ldi	r25, 0x7A	; 122
     386:	01 97       	sbiw	r24, 0x01	; 1
     388:	f1 f7       	brne	.-4      	; 0x386 <adjustMin+0x86>
     38a:	00 c0       	rjmp	.+0      	; 0x38c <adjustMin+0x8c>
     38c:	00 00       	nop
     38e:	c2 cf       	rjmp	.-124    	; 0x314 <adjustMin+0x14>
     390:	e1 e1       	ldi	r30, 0x11	; 17
     392:	fa e7       	ldi	r31, 0x7A	; 122
     394:	31 97       	sbiw	r30, 0x01	; 1
     396:	f1 f7       	brne	.-4      	; 0x394 <adjustMin+0x94>
     398:	00 c0       	rjmp	.+0      	; 0x39a <adjustMin+0x9a>
     39a:	00 00       	nop
		DONE = 1;
		_delay_ms(halfSec/4);
	}//while (!DONE)

}//adjustMin
     39c:	0f 90       	pop	r0
     39e:	0f 90       	pop	r0
     3a0:	0f 90       	pop	r0
     3a2:	df 91       	pop	r29
     3a4:	cf 91       	pop	r28
     3a6:	1f 91       	pop	r17
     3a8:	0f 91       	pop	r16
     3aa:	08 95       	ret

000003ac <adjustSec>:

//-----------------------------------
void adjustSec()
{
     3ac:	0f 93       	push	r16
     3ae:	1f 93       	push	r17
     3b0:	cf 93       	push	r28
     3b2:	df 93       	push	r29
     3b4:	00 d0       	rcall	.+0      	; 0x3b6 <adjustSec+0xa>
     3b6:	1f 92       	push	r1
     3b8:	cd b7       	in	r28, 0x3d	; 61
     3ba:	de b7       	in	r29, 0x3e	; 62
	uint8_t DONE=0, val;
	uint8_t curLoop=0, preLoop=0, lapse=0;
     3bc:	00 e0       	ldi	r16, 0x00	; 0
     3be:	10 e0       	ldi	r17, 0x00	; 0
	char strSec[3];

	while (!DONE)
	{
		// set cursor to start of first line
		lcd_write_instruction_4d(lcd_SetCursor | lcd_LineOne);
     3c0:	80 e8       	ldi	r24, 0x80	; 128
     3c2:	0e 94 13 05 	call	0xa26	; 0xa26 <lcd_write_instruction_4d>
	#else
		//round up by default
		__ticks_dc = (uint32_t)(ceil(fabs(__tmp)));
	#endif

	__builtin_avr_delay_cycles(__ticks_dc);
     3c6:	84 e1       	ldi	r24, 0x14	; 20
     3c8:	8a 95       	dec	r24
     3ca:	f1 f7       	brne	.-4      	; 0x3c8 <adjustSec+0x1c>
		_delay_us(DELAY_INST);                                  // 40 uS delay (sec)
		// display the first line of information
		lcd_write_string_4d((uint8_t *)"sec: ");
     3cc:	8e eb       	ldi	r24, 0xBE	; 190
     3ce:	93 e0       	ldi	r25, 0x03	; 3
     3d0:	0e 94 e4 04 	call	0x9c8	; 0x9c8 <lcd_write_string_4d>
		itoa(sec, strSec, 10);
     3d4:	80 91 1c 04 	lds	r24, 0x041C	; 0x80041c <sec>
     3d8:	4a e0       	ldi	r20, 0x0A	; 10
     3da:	be 01       	movw	r22, r28
     3dc:	6f 5f       	subi	r22, 0xFF	; 255
     3de:	7f 4f       	sbci	r23, 0xFF	; 255
     3e0:	08 2e       	mov	r0, r24
     3e2:	00 0c       	add	r0, r0
     3e4:	99 0b       	sbc	r25, r25
     3e6:	0e 94 65 09 	call	0x12ca	; 0x12ca <__itoa_ncheck>
		lcd_write_string_4d((uint8_t *)strSec);
     3ea:	ce 01       	movw	r24, r28
     3ec:	01 96       	adiw	r24, 0x01	; 1
     3ee:	0e 94 e4 04 	call	0x9c8	; 0x9c8 <lcd_write_string_4d>
		lcd_write_string_4d((uint8_t *)" ");
     3f2:	83 ee       	ldi	r24, 0xE3	; 227
     3f4:	93 e0       	ldi	r25, 0x03	; 3
     3f6:	0e 94 e4 04 	call	0x9c8	; 0x9c8 <lcd_write_string_4d>
		val = tactile_Switch_port & _BV(tactile_Switch_bit);
     3fa:	89 b1       	in	r24, 0x09	; 9
	#else
		//round up by default
		__ticks_dc = (uint32_t)(ceil(fabs(__tmp)));
	#endif

	__builtin_avr_delay_cycles(__ticks_dc);
     3fc:	e7 ea       	ldi	r30, 0xA7	; 167
     3fe:	f1 e6       	ldi	r31, 0x61	; 97
     400:	31 97       	sbiw	r30, 0x01	; 1
     402:	f1 f7       	brne	.-4      	; 0x400 <__LOCK_REGION_LENGTH__>
     404:	00 c0       	rjmp	.+0      	; 0x406 <__LOCK_REGION_LENGTH__+0x6>
     406:	00 00       	nop
		_delay_ms(100);
		if (val == 0)
     408:	86 fd       	sbrc	r24, 6
     40a:	0c c0       	rjmp	.+24     	; 0x424 <__LOCK_REGION_LENGTH__+0x24>
		{
			sec++;
     40c:	80 91 1c 04 	lds	r24, 0x041C	; 0x80041c <sec>
     410:	8f 5f       	subi	r24, 0xFF	; 255
			if (sec > 59)
     412:	8c 33       	cpi	r24, 0x3C	; 60
     414:	24 f4       	brge	.+8      	; 0x41e <__LOCK_REGION_LENGTH__+0x1e>
		lcd_write_string_4d((uint8_t *)" ");
		val = tactile_Switch_port & _BV(tactile_Switch_bit);
		_delay_ms(100);
		if (val == 0)
		{
			sec++;
     416:	80 93 1c 04 	sts	0x041C, r24	; 0x80041c <sec>
     41a:	01 2f       	mov	r16, r17
     41c:	03 c0       	rjmp	.+6      	; 0x424 <__LOCK_REGION_LENGTH__+0x24>
			if (sec > 59)
			sec=0;
     41e:	10 92 1c 04 	sts	0x041C, r1	; 0x80041c <sec>
     422:	01 2f       	mov	r16, r17
			preLoop = curLoop;
		}
		curLoop++;
     424:	1f 5f       	subi	r17, 0xFF	; 255
		lapse = curLoop - preLoop;
     426:	81 2f       	mov	r24, r17
     428:	80 1b       	sub	r24, r16
		if (lapse > adjustTimeInterval)
     42a:	89 30       	cpi	r24, 0x09	; 9
     42c:	38 f4       	brcc	.+14     	; 0x43c <__LOCK_REGION_LENGTH__+0x3c>
     42e:	81 e1       	ldi	r24, 0x11	; 17
     430:	9a e7       	ldi	r25, 0x7A	; 122
     432:	01 97       	sbiw	r24, 0x01	; 1
     434:	f1 f7       	brne	.-4      	; 0x432 <__LOCK_REGION_LENGTH__+0x32>
     436:	00 c0       	rjmp	.+0      	; 0x438 <__LOCK_REGION_LENGTH__+0x38>
     438:	00 00       	nop
     43a:	c2 cf       	rjmp	.-124    	; 0x3c0 <adjustSec+0x14>
     43c:	e1 e1       	ldi	r30, 0x11	; 17
     43e:	fa e7       	ldi	r31, 0x7A	; 122
     440:	31 97       	sbiw	r30, 0x01	; 1
     442:	f1 f7       	brne	.-4      	; 0x440 <__LOCK_REGION_LENGTH__+0x40>
     444:	00 c0       	rjmp	.+0      	; 0x446 <__LOCK_REGION_LENGTH__+0x46>
     446:	00 00       	nop
		DONE = 1;
		_delay_ms(halfSec/4);
	}//while (!DONE)

}//adjustSec
     448:	0f 90       	pop	r0
     44a:	0f 90       	pop	r0
     44c:	0f 90       	pop	r0
     44e:	df 91       	pop	r29
     450:	cf 91       	pop	r28
     452:	1f 91       	pop	r17
     454:	0f 91       	pop	r16
     456:	08 95       	ret

00000458 <dispDayAsStr>:
/*
Ref) String handling
 https://www.nongnu.org/avr-libc/user-manual/group__avr__string.html#ga54e4f23104fa6f722f9459d2673a1eba
*/
void dispDayAsStr(byte wkDays)
{
     458:	cf 93       	push	r28
     45a:	df 93       	push	r29
     45c:	00 d0       	rcall	.+0      	; 0x45e <dispDayAsStr+0x6>
     45e:	00 d0       	rcall	.+0      	; 0x460 <dispDayAsStr+0x8>
     460:	1f 92       	push	r1
     462:	cd b7       	in	r28, 0x3d	; 61
     464:	de b7       	in	r29, 0x3e	; 62
	char strWkDays[5];

	switch(wkDays)
     466:	90 e0       	ldi	r25, 0x00	; 0
     468:	fc 01       	movw	r30, r24
     46a:	31 97       	sbiw	r30, 0x01	; 1
     46c:	e7 30       	cpi	r30, 0x07	; 7
     46e:	f1 05       	cpc	r31, r1
     470:	08 f0       	brcs	.+2      	; 0x474 <dispDayAsStr+0x1c>
     472:	43 c0       	rjmp	.+134    	; 0x4fa <dispDayAsStr+0xa2>
     474:	ec 5c       	subi	r30, 0xCC	; 204
     476:	ff 4f       	sbci	r31, 0xFF	; 255
     478:	0c 94 53 09 	jmp	0x12a6	; 0x12a6 <__tablejump2__>
	{
		case 1: strcpy(strWkDays,"Mon");
     47c:	8d e4       	ldi	r24, 0x4D	; 77
     47e:	9f e6       	ldi	r25, 0x6F	; 111
     480:	ae e6       	ldi	r26, 0x6E	; 110
     482:	b0 e0       	ldi	r27, 0x00	; 0
     484:	89 83       	std	Y+1, r24	; 0x01
     486:	9a 83       	std	Y+2, r25	; 0x02
     488:	ab 83       	std	Y+3, r26	; 0x03
     48a:	bc 83       	std	Y+4, r27	; 0x04
				break;
     48c:	3e c0       	rjmp	.+124    	; 0x50a <dispDayAsStr+0xb2>
		case 2: strcpy(strWkDays,"Tue");
     48e:	84 e5       	ldi	r24, 0x54	; 84
     490:	95 e7       	ldi	r25, 0x75	; 117
     492:	a5 e6       	ldi	r26, 0x65	; 101
     494:	b0 e0       	ldi	r27, 0x00	; 0
     496:	89 83       	std	Y+1, r24	; 0x01
     498:	9a 83       	std	Y+2, r25	; 0x02
     49a:	ab 83       	std	Y+3, r26	; 0x03
     49c:	bc 83       	std	Y+4, r27	; 0x04
				break;
     49e:	35 c0       	rjmp	.+106    	; 0x50a <dispDayAsStr+0xb2>
		case 3: strcpy(strWkDays,"Wed");
     4a0:	87 e5       	ldi	r24, 0x57	; 87
     4a2:	95 e6       	ldi	r25, 0x65	; 101
     4a4:	a4 e6       	ldi	r26, 0x64	; 100
     4a6:	b0 e0       	ldi	r27, 0x00	; 0
     4a8:	89 83       	std	Y+1, r24	; 0x01
     4aa:	9a 83       	std	Y+2, r25	; 0x02
     4ac:	ab 83       	std	Y+3, r26	; 0x03
     4ae:	bc 83       	std	Y+4, r27	; 0x04
				break;
     4b0:	2c c0       	rjmp	.+88     	; 0x50a <dispDayAsStr+0xb2>
		case 4: strcpy(strWkDays,"Thu");
     4b2:	84 e5       	ldi	r24, 0x54	; 84
     4b4:	98 e6       	ldi	r25, 0x68	; 104
     4b6:	a5 e7       	ldi	r26, 0x75	; 117
     4b8:	b0 e0       	ldi	r27, 0x00	; 0
     4ba:	89 83       	std	Y+1, r24	; 0x01
     4bc:	9a 83       	std	Y+2, r25	; 0x02
     4be:	ab 83       	std	Y+3, r26	; 0x03
     4c0:	bc 83       	std	Y+4, r27	; 0x04
				break;
     4c2:	23 c0       	rjmp	.+70     	; 0x50a <dispDayAsStr+0xb2>
		case 5: strcpy(strWkDays,"Fri");
     4c4:	86 e4       	ldi	r24, 0x46	; 70
     4c6:	92 e7       	ldi	r25, 0x72	; 114
     4c8:	a9 e6       	ldi	r26, 0x69	; 105
     4ca:	b0 e0       	ldi	r27, 0x00	; 0
     4cc:	89 83       	std	Y+1, r24	; 0x01
     4ce:	9a 83       	std	Y+2, r25	; 0x02
     4d0:	ab 83       	std	Y+3, r26	; 0x03
     4d2:	bc 83       	std	Y+4, r27	; 0x04
				break;
     4d4:	1a c0       	rjmp	.+52     	; 0x50a <dispDayAsStr+0xb2>
		case 6: strcpy(strWkDays,"Sat");
     4d6:	83 e5       	ldi	r24, 0x53	; 83
     4d8:	91 e6       	ldi	r25, 0x61	; 97
     4da:	a4 e7       	ldi	r26, 0x74	; 116
     4dc:	b0 e0       	ldi	r27, 0x00	; 0
     4de:	89 83       	std	Y+1, r24	; 0x01
     4e0:	9a 83       	std	Y+2, r25	; 0x02
     4e2:	ab 83       	std	Y+3, r26	; 0x03
     4e4:	bc 83       	std	Y+4, r27	; 0x04
				break;
     4e6:	11 c0       	rjmp	.+34     	; 0x50a <dispDayAsStr+0xb2>
		case 7: strcpy(strWkDays,"Sun");
     4e8:	83 e5       	ldi	r24, 0x53	; 83
     4ea:	95 e7       	ldi	r25, 0x75	; 117
     4ec:	ae e6       	ldi	r26, 0x6E	; 110
     4ee:	b0 e0       	ldi	r27, 0x00	; 0
     4f0:	89 83       	std	Y+1, r24	; 0x01
     4f2:	9a 83       	std	Y+2, r25	; 0x02
     4f4:	ab 83       	std	Y+3, r26	; 0x03
     4f6:	bc 83       	std	Y+4, r27	; 0x04
				break;
     4f8:	08 c0       	rjmp	.+16     	; 0x50a <dispDayAsStr+0xb2>
		default:
				strcpy(strWkDays,"???");
     4fa:	8f e3       	ldi	r24, 0x3F	; 63
     4fc:	9f e3       	ldi	r25, 0x3F	; 63
     4fe:	af e3       	ldi	r26, 0x3F	; 63
     500:	b0 e0       	ldi	r27, 0x00	; 0
     502:	89 83       	std	Y+1, r24	; 0x01
     504:	9a 83       	std	Y+2, r25	; 0x02
     506:	ab 83       	std	Y+3, r26	; 0x03
     508:	bc 83       	std	Y+4, r27	; 0x04
	}
	lcd_write_string_4d((uint8_t *)strWkDays);
     50a:	ce 01       	movw	r24, r28
     50c:	01 96       	adiw	r24, 0x01	; 1
     50e:	0e 94 e4 04 	call	0x9c8	; 0x9c8 <lcd_write_string_4d>


}
     512:	0f 90       	pop	r0
     514:	0f 90       	pop	r0
     516:	0f 90       	pop	r0
     518:	0f 90       	pop	r0
     51a:	0f 90       	pop	r0
     51c:	df 91       	pop	r29
     51e:	cf 91       	pop	r28
     520:	08 95       	ret

00000522 <LCD_WriteDate>:
}//ShowDevices


//----------------------------------
void LCD_WriteDate()
{
     522:	cf 93       	push	r28
     524:	df 93       	push	r29
     526:	00 d0       	rcall	.+0      	; 0x528 <LCD_WriteDate+0x6>
     528:	00 d0       	rcall	.+0      	; 0x52a <LCD_WriteDate+0x8>
     52a:	cd b7       	in	r28, 0x3d	; 61
     52c:	de b7       	in	r29, 0x3e	; 62
	byte months, days, years;
	byte wkDays;

	DS1307_GetDate(&months,&days,&years);
     52e:	ae 01       	movw	r20, r28
     530:	4d 5f       	subi	r20, 0xFD	; 253
     532:	5f 4f       	sbci	r21, 0xFF	; 255
     534:	be 01       	movw	r22, r28
     536:	6e 5f       	subi	r22, 0xFE	; 254
     538:	7f 4f       	sbci	r23, 0xFF	; 255
     53a:	ce 01       	movw	r24, r28
     53c:	01 96       	adiw	r24, 0x01	; 1
     53e:	0e 94 fe 00 	call	0x1fc	; 0x1fc <DS1307_GetDate>
	LCD_BCDDigits(months);
     542:	89 81       	ldd	r24, Y+1	; 0x01
     544:	0e 94 6b 05 	call	0xad6	; 0xad6 <LCD_BCDDigits>
	//LCD_Char('/');
	lcd_write_character_4d('/');
     548:	8f e2       	ldi	r24, 0x2F	; 47
     54a:	0e 94 d7 04 	call	0x9ae	; 0x9ae <lcd_write_character_4d>
	LCD_BCDDigits(days);
     54e:	8a 81       	ldd	r24, Y+2	; 0x02
     550:	0e 94 6b 05 	call	0xad6	; 0xad6 <LCD_BCDDigits>
	//LCD_Char('/');
	lcd_write_character_4d('/');
     554:	8f e2       	ldi	r24, 0x2F	; 47
     556:	0e 94 d7 04 	call	0x9ae	; 0x9ae <lcd_write_character_4d>
	LCD_BCDDigits(years);
     55a:	8b 81       	ldd	r24, Y+3	; 0x03
     55c:	0e 94 6b 05 	call	0xad6	; 0xad6 <LCD_BCDDigits>

	lcd_write_character_4d(' ');
     560:	80 e2       	ldi	r24, 0x20	; 32
     562:	0e 94 d7 04 	call	0x9ae	; 0x9ae <lcd_write_character_4d>
	DS1307_GetWkDay(&wkDays);
     566:	ce 01       	movw	r24, r28
     568:	04 96       	adiw	r24, 0x04	; 4
     56a:	0e 94 1f 01 	call	0x23e	; 0x23e <DS1307_GetWkDay>
	//LCD_BCDDigits(wkDays); // Day as number
	dispDayAsStr(wkDays);
     56e:	8c 81       	ldd	r24, Y+4	; 0x04
     570:	0e 94 2c 02 	call	0x458	; 0x458 <dispDayAsStr>

}//LCD_WriteDate
     574:	0f 90       	pop	r0
     576:	0f 90       	pop	r0
     578:	0f 90       	pop	r0
     57a:	0f 90       	pop	r0
     57c:	df 91       	pop	r29
     57e:	cf 91       	pop	r28
     580:	08 95       	ret

00000582 <LCD_WriteTime>:


}
//----------------------------------
void LCD_WriteTime()
{
     582:	cf 93       	push	r28
     584:	df 93       	push	r29
     586:	00 d0       	rcall	.+0      	; 0x588 <LCD_WriteTime+0x6>
     588:	1f 92       	push	r1
     58a:	cd b7       	in	r28, 0x3d	; 61
     58c:	de b7       	in	r29, 0x3e	; 62
	byte hours, minutes, seconds;
	DS1307_GetTime(&hours,&minutes,&seconds);
     58e:	ae 01       	movw	r20, r28
     590:	4d 5f       	subi	r20, 0xFD	; 253
     592:	5f 4f       	sbci	r21, 0xFF	; 255
     594:	be 01       	movw	r22, r28
     596:	6e 5f       	subi	r22, 0xFE	; 254
     598:	7f 4f       	sbci	r23, 0xFF	; 255
     59a:	ce 01       	movw	r24, r28
     59c:	01 96       	adiw	r24, 0x01	; 1
     59e:	0e 94 d5 00 	call	0x1aa	; 0x1aa <DS1307_GetTime>
	LCD_BCDDigits(hours);
     5a2:	89 81       	ldd	r24, Y+1	; 0x01
     5a4:	0e 94 6b 05 	call	0xad6	; 0xad6 <LCD_BCDDigits>
	//LCD_Char(':');
	lcd_write_character_4d(':');
     5a8:	8a e3       	ldi	r24, 0x3A	; 58
     5aa:	0e 94 d7 04 	call	0x9ae	; 0x9ae <lcd_write_character_4d>

	LCD_BCDDigits(minutes);
     5ae:	8a 81       	ldd	r24, Y+2	; 0x02
     5b0:	0e 94 6b 05 	call	0xad6	; 0xad6 <LCD_BCDDigits>
	//LCD_Char(':');
	lcd_write_character_4d(':');
     5b4:	8a e3       	ldi	r24, 0x3A	; 58
     5b6:	0e 94 d7 04 	call	0x9ae	; 0x9ae <lcd_write_character_4d>

	LCD_BCDDigits(seconds);
     5ba:	8b 81       	ldd	r24, Y+3	; 0x03
     5bc:	0e 94 6b 05 	call	0xad6	; 0xad6 <LCD_BCDDigits>
}//LCD_WriteTime
     5c0:	0f 90       	pop	r0
     5c2:	0f 90       	pop	r0
     5c4:	0f 90       	pop	r0
     5c6:	df 91       	pop	r29
     5c8:	cf 91       	pop	r28
     5ca:	08 95       	ret

000005cc <LCD_WriteTimeDate>:

//----------------------------------
void LCD_WriteTimeDate()
{
	//LCD_Line(0);
	lcd_write_instruction_4d(lcd_SetCursor | lcd_LineOne);
     5cc:	80 e8       	ldi	r24, 0x80	; 128
     5ce:	0e 94 13 05 	call	0xa26	; 0xa26 <lcd_write_instruction_4d>
	LCD_WriteTime();
     5d2:	0e 94 c1 02 	call	0x582	; 0x582 <LCD_WriteTime>
	LCD_blankChar(8);
     5d6:	88 e0       	ldi	r24, 0x08	; 8
     5d8:	0e 94 7d 05 	call	0xafa	; 0xafa <LCD_blankChar>

	//LCD_Line(1);
	lcd_write_instruction_4d(lcd_SetCursor | lcd_LineTwo);
     5dc:	80 ec       	ldi	r24, 0xC0	; 192
     5de:	0e 94 13 05 	call	0xa26	; 0xa26 <lcd_write_instruction_4d>
	

	LCD_blankChar(8);
     5e2:	88 e0       	ldi	r24, 0x08	; 8
     5e4:	0e 94 7d 05 	call	0xafa	; 0xafa <LCD_blankChar>
     5e8:	08 95       	ret

000005ea <LCD_WriteTimeDateTempHumid>:

//----------------------------------
void LCD_WriteTimeDateTempHumid()
{
	//LCD_Line(0);
	getDHT();
     5ea:	0e 94 96 00 	call	0x12c	; 0x12c <getDHT>
	//_delay_ms(1000);
	lcd_write_instruction_4d(lcd_SetCursor | lcd_LineOne);
     5ee:	80 e8       	ldi	r24, 0x80	; 128
     5f0:	0e 94 13 05 	call	0xa26	; 0xa26 <lcd_write_instruction_4d>
	LCD_WriteTime();
     5f4:	0e 94 c1 02 	call	0x582	; 0x582 <LCD_WriteTime>
	LCD_blankChar(5);
     5f8:	85 e0       	ldi	r24, 0x05	; 5
     5fa:	0e 94 7d 05 	call	0xafa	; 0xafa <LCD_blankChar>
	lcd_write_string_4d((uint8_t *)strTemp);
     5fe:	86 e2       	ldi	r24, 0x26	; 38
     600:	94 e0       	ldi	r25, 0x04	; 4
     602:	0e 94 e4 04 	call	0x9c8	; 0x9c8 <lcd_write_string_4d>
	//LCD_blankChar(1);
	lcd_write_character_4d('C');
     606:	83 e4       	ldi	r24, 0x43	; 67
     608:	0e 94 d7 04 	call	0x9ae	; 0x9ae <lcd_write_character_4d>

	//LCD_Line(1);
	lcd_write_instruction_4d(lcd_SetCursor | lcd_LineTwo);
     60c:	80 ec       	ldi	r24, 0xC0	; 192
     60e:	0e 94 13 05 	call	0xa26	; 0xa26 <lcd_write_instruction_4d>
	LCD_WriteDate();
     612:	0e 94 91 02 	call	0x522	; 0x522 <LCD_WriteDate>
	//LCD_blankChar(2); // For display WkDay as number
	LCD_blankChar(1); // For display WkDay as string
     616:	81 e0       	ldi	r24, 0x01	; 1
     618:	0e 94 7d 05 	call	0xafa	; 0xafa <LCD_blankChar>
	lcd_write_string_4d((uint8_t *)strHumid);
     61c:	82 e2       	ldi	r24, 0x22	; 34
     61e:	94 e0       	ldi	r25, 0x04	; 4
     620:	0e 94 e4 04 	call	0x9c8	; 0x9c8 <lcd_write_string_4d>
	//LCD_blankChar(1);
	//lcd_write_character_4d('%');
	lcd_write_character_4d(37);
     624:	85 e2       	ldi	r24, 0x25	; 37
     626:	0e 94 d7 04 	call	0x9ae	; 0x9ae <lcd_write_character_4d>
     62a:	08 95       	ret

0000062c <I2C_Init>:
{
	I2C_Start(busAddr); // send bus address
	I2C_Write(deviceRegister); // first byte = device register address
	I2C_Write(data); // second byte = data for device register
	I2C_Stop();
}//I2C_WriteRegister
     62c:	10 92 b9 00 	sts	0x00B9, r1	; 0x8000b9 <__TEXT_REGION_LENGTH__+0x7e00b9>
     630:	8d ef       	ldi	r24, 0xFD	; 253
     632:	80 93 b8 00 	sts	0x00B8, r24	; 0x8000b8 <__TEXT_REGION_LENGTH__+0x7e00b8>
     636:	08 95       	ret

00000638 <I2C_Detect>:
     638:	94 ea       	ldi	r25, 0xA4	; 164
     63a:	90 93 bc 00 	sts	0x00BC, r25	; 0x8000bc <__TEXT_REGION_LENGTH__+0x7e00bc>
     63e:	ec eb       	ldi	r30, 0xBC	; 188
     640:	f0 e0       	ldi	r31, 0x00	; 0
     642:	90 81       	ld	r25, Z
     644:	99 23       	and	r25, r25
     646:	ec f7       	brge	.-6      	; 0x642 <I2C_Detect+0xa>
     648:	80 93 bb 00 	sts	0x00BB, r24	; 0x8000bb <__TEXT_REGION_LENGTH__+0x7e00bb>
     64c:	84 e8       	ldi	r24, 0x84	; 132
     64e:	80 93 bc 00 	sts	0x00BC, r24	; 0x8000bc <__TEXT_REGION_LENGTH__+0x7e00bc>
     652:	ec eb       	ldi	r30, 0xBC	; 188
     654:	f0 e0       	ldi	r31, 0x00	; 0
     656:	80 81       	ld	r24, Z
     658:	88 23       	and	r24, r24
     65a:	ec f7       	brge	.-6      	; 0x656 <I2C_Detect+0x1e>
     65c:	90 91 b9 00 	lds	r25, 0x00B9	; 0x8000b9 <__TEXT_REGION_LENGTH__+0x7e00b9>
     660:	98 7f       	andi	r25, 0xF8	; 248
     662:	81 e0       	ldi	r24, 0x01	; 1
     664:	98 31       	cpi	r25, 0x18	; 24
     666:	09 f0       	breq	.+2      	; 0x66a <I2C_Detect+0x32>
     668:	80 e0       	ldi	r24, 0x00	; 0
     66a:	08 95       	ret

0000066c <I2C_Write>:
     66c:	80 93 bb 00 	sts	0x00BB, r24	; 0x8000bb <__TEXT_REGION_LENGTH__+0x7e00bb>
     670:	84 e8       	ldi	r24, 0x84	; 132
     672:	80 93 bc 00 	sts	0x00BC, r24	; 0x8000bc <__TEXT_REGION_LENGTH__+0x7e00bc>
     676:	ec eb       	ldi	r30, 0xBC	; 188
     678:	f0 e0       	ldi	r31, 0x00	; 0
     67a:	80 81       	ld	r24, Z
     67c:	88 23       	and	r24, r24
     67e:	ec f7       	brge	.-6      	; 0x67a <I2C_Write+0xe>
     680:	90 91 b9 00 	lds	r25, 0x00B9	; 0x8000b9 <__TEXT_REGION_LENGTH__+0x7e00b9>
     684:	98 7f       	andi	r25, 0xF8	; 248
     686:	81 e0       	ldi	r24, 0x01	; 1
     688:	98 32       	cpi	r25, 0x28	; 40
     68a:	09 f4       	brne	.+2      	; 0x68e <I2C_Write+0x22>
     68c:	80 e0       	ldi	r24, 0x00	; 0
     68e:	08 95       	ret

00000690 <I2C_ReadNACK>:
     690:	84 e8       	ldi	r24, 0x84	; 132
     692:	80 93 bc 00 	sts	0x00BC, r24	; 0x8000bc <__TEXT_REGION_LENGTH__+0x7e00bc>
     696:	ec eb       	ldi	r30, 0xBC	; 188
     698:	f0 e0       	ldi	r31, 0x00	; 0
     69a:	80 81       	ld	r24, Z
     69c:	88 23       	and	r24, r24
     69e:	ec f7       	brge	.-6      	; 0x69a <I2C_ReadNACK+0xa>
     6a0:	80 91 bb 00 	lds	r24, 0x00BB	; 0x8000bb <__TEXT_REGION_LENGTH__+0x7e00bb>
     6a4:	08 95       	ret

000006a6 <I2C_ReadRegister>:

//----------------------------------
byte I2C_ReadRegister(byte busAddr, byte deviceRegister)
{
     6a6:	cf 93       	push	r28
     6a8:	df 93       	push	r29
     6aa:	c8 2f       	mov	r28, r24
     6ac:	d6 2f       	mov	r29, r22
}//I2C_FindDevice

//----------------------------------
void I2C_Start (byte slaveAddr)
{
	I2C_Detect(slaveAddr);
     6ae:	0e 94 1c 03 	call	0x638	; 0x638 <I2C_Detect>
//----------------------------------
byte I2C_ReadRegister(byte busAddr, byte deviceRegister)
{
	byte data = 0;
	I2C_Start(busAddr); // send device address
	I2C_Write(deviceRegister); // set register pointer
     6b2:	8d 2f       	mov	r24, r29
     6b4:	0e 94 36 03 	call	0x66c	; 0x66c <I2C_Write>
}//I2C_FindDevice

//----------------------------------
void I2C_Start (byte slaveAddr)
{
	I2C_Detect(slaveAddr);
     6b8:	81 e0       	ldi	r24, 0x01	; 1
     6ba:	8c 0f       	add	r24, r28
     6bc:	0e 94 1c 03 	call	0x638	; 0x638 <I2C_Detect>
{
	byte data = 0;
	I2C_Start(busAddr); // send device address
	I2C_Write(deviceRegister); // set register pointer
	I2C_Start(busAddr+READ); // restart as a read operation
	data = I2C_ReadNACK(); // read the register data
     6c0:	0e 94 48 03 	call	0x690	; 0x690 <I2C_ReadNACK>
	I2C_Stop(); // stop
     6c4:	94 e9       	ldi	r25, 0x94	; 148
     6c6:	90 93 bc 00 	sts	0x00BC, r25	; 0x8000bc <__TEXT_REGION_LENGTH__+0x7e00bc>
	return data;
}//I2C_ReadRegister
     6ca:	df 91       	pop	r29
     6cc:	cf 91       	pop	r28
     6ce:	08 95       	ret

000006d0 <__vector_1>:
    EIMSK = 0x00;

    TIMSK0 = 0x02; //timer 0 interrupt sources

    PRR = 0x00; //power controller
    sei(); //re-enable interrupts
     6d0:	1f 92       	push	r1
     6d2:	0f 92       	push	r0
     6d4:	0f b6       	in	r0, 0x3f	; 63
     6d6:	0f 92       	push	r0
     6d8:	11 24       	eor	r1, r1
     6da:	2f 93       	push	r18
     6dc:	3f 93       	push	r19
     6de:	4f 93       	push	r20
     6e0:	5f 93       	push	r21
     6e2:	6f 93       	push	r22
     6e4:	7f 93       	push	r23
     6e6:	8f 93       	push	r24
     6e8:	9f 93       	push	r25
     6ea:	af 93       	push	r26
     6ec:	bf 93       	push	r27
     6ee:	ef 93       	push	r30
     6f0:	ff 93       	push	r31
     6f2:	80 91 2b 04 	lds	r24, 0x042B	; 0x80042b <numSQW>
     6f6:	90 91 2c 04 	lds	r25, 0x042C	; 0x80042c <numSQW+0x1>
     6fa:	01 96       	adiw	r24, 0x01	; 1
     6fc:	90 93 2c 04 	sts	0x042C, r25	; 0x80042c <numSQW+0x1>
     700:	80 93 2b 04 	sts	0x042B, r24	; 0x80042b <numSQW>
     704:	03 97       	sbiw	r24, 0x03	; 3
     706:	49 f4       	brne	.+18     	; 0x71a <__vector_1+0x4a>
     708:	81 e0       	ldi	r24, 0x01	; 1
     70a:	80 93 14 04 	sts	0x0414, r24	; 0x800414 <__data_end>
     70e:	0e 94 dd 07 	call	0xfba	; 0xfba <buzzerBeepBeep>
     712:	10 92 2c 04 	sts	0x042C, r1	; 0x80042c <numSQW+0x1>
     716:	10 92 2b 04 	sts	0x042B, r1	; 0x80042b <numSQW>
     71a:	ff 91       	pop	r31
     71c:	ef 91       	pop	r30
     71e:	bf 91       	pop	r27
     720:	af 91       	pop	r26
     722:	9f 91       	pop	r25
     724:	8f 91       	pop	r24
     726:	7f 91       	pop	r23
     728:	6f 91       	pop	r22
     72a:	5f 91       	pop	r21
     72c:	4f 91       	pop	r20
     72e:	3f 91       	pop	r19
     730:	2f 91       	pop	r18
     732:	0f 90       	pop	r0
     734:	0f be       	out	0x3f, r0	; 63
     736:	0f 90       	pop	r0
     738:	1f 90       	pop	r1
     73a:	18 95       	reti

0000073c <__vector_5>:
     73c:	1f 92       	push	r1
     73e:	0f 92       	push	r0
     740:	0f b6       	in	r0, 0x3f	; 63
     742:	0f 92       	push	r0
     744:	11 24       	eor	r1, r1
     746:	2f 93       	push	r18
     748:	3f 93       	push	r19
     74a:	4f 93       	push	r20
     74c:	5f 93       	push	r21
     74e:	6f 93       	push	r22
     750:	7f 93       	push	r23
     752:	8f 93       	push	r24
     754:	9f 93       	push	r25
     756:	af 93       	push	r26
     758:	bf 93       	push	r27
     75a:	ef 93       	push	r30
     75c:	ff 93       	push	r31
     75e:	80 91 20 04 	lds	r24, 0x0420	; 0x800420 <btcnt>
     762:	91 e0       	ldi	r25, 0x01	; 1
     764:	98 0f       	add	r25, r24
     766:	90 93 20 04 	sts	0x0420, r25	; 0x800420 <btcnt>
     76a:	80 fd       	sbrc	r24, 0
     76c:	1a c0       	rjmp	.+52     	; 0x7a2 <__vector_5+0x66>
     76e:	80 91 21 04 	lds	r24, 0x0421	; 0x800421 <pwrOn>
     772:	81 11       	cpse	r24, r1
     774:	0d c0       	rjmp	.+26     	; 0x790 <__vector_5+0x54>
     776:	0e 94 91 07 	call	0xf22	; 0xf22 <makePDasOutput>
     77a:	0e 94 20 05 	call	0xa40	; 0xa40 <lcd_init_4d>
     77e:	83 ec       	ldi	r24, 0xC3	; 195
     780:	99 e0       	ldi	r25, 0x09	; 9
     782:	01 97       	sbiw	r24, 0x01	; 1
     784:	f1 f7       	brne	.-4      	; 0x782 <__vector_5+0x46>
     786:	00 c0       	rjmp	.+0      	; 0x788 <__vector_5+0x4c>
     788:	00 00       	nop
     78a:	81 e0       	ldi	r24, 0x01	; 1
     78c:	80 93 21 04 	sts	0x0421, r24	; 0x800421 <pwrOn>
     790:	4e 99       	sbic	0x09, 6	; 9
     792:	0e 94 95 08 	call	0x112a	; 0x112a <countButton>
     796:	8f e4       	ldi	r24, 0x4F	; 79
     798:	93 ec       	ldi	r25, 0xC3	; 195
     79a:	01 97       	sbiw	r24, 0x01	; 1
     79c:	f1 f7       	brne	.-4      	; 0x79a <__vector_5+0x5e>
     79e:	00 c0       	rjmp	.+0      	; 0x7a0 <__vector_5+0x64>
     7a0:	00 00       	nop
     7a2:	ff 91       	pop	r31
     7a4:	ef 91       	pop	r30
     7a6:	bf 91       	pop	r27
     7a8:	af 91       	pop	r26
     7aa:	9f 91       	pop	r25
     7ac:	8f 91       	pop	r24
     7ae:	7f 91       	pop	r23
     7b0:	6f 91       	pop	r22
     7b2:	5f 91       	pop	r21
     7b4:	4f 91       	pop	r20
     7b6:	3f 91       	pop	r19
     7b8:	2f 91       	pop	r18
     7ba:	0f 90       	pop	r0
     7bc:	0f be       	out	0x3f, r0	; 63
     7be:	0f 90       	pop	r0
     7c0:	1f 90       	pop	r1
     7c2:	18 95       	reti

000007c4 <initINT>:
     7c4:	f8 94       	cli
     7c6:	e8 e6       	ldi	r30, 0x68	; 104
     7c8:	f0 e0       	ldi	r31, 0x00	; 0
     7ca:	80 81       	ld	r24, Z
     7cc:	84 60       	ori	r24, 0x04	; 4
     7ce:	80 83       	st	Z, r24
     7d0:	ed e6       	ldi	r30, 0x6D	; 109
     7d2:	f0 e0       	ldi	r31, 0x00	; 0
     7d4:	80 81       	ld	r24, Z
     7d6:	80 64       	ori	r24, 0x40	; 64
     7d8:	80 83       	st	Z, r24
     7da:	78 94       	sei
     7dc:	08 95       	ret

000007de <proceedClock>:

//----------------------------------
void proceedClock()
{
    //WDT interrupt occurs every 8 seconds
    sec += 8;
     7de:	80 91 1c 04 	lds	r24, 0x041C	; 0x80041c <sec>
     7e2:	88 5f       	subi	r24, 0xF8	; 248
     7e4:	80 93 1c 04 	sts	0x041C, r24	; 0x80041c <sec>
    accumulatedSec += 8;
     7e8:	20 91 15 04 	lds	r18, 0x0415	; 0x800415 <accumulatedSec>
     7ec:	28 5f       	subi	r18, 0xF8	; 248
     7ee:	20 93 15 04 	sts	0x0415, r18	; 0x800415 <accumulatedSec>

    //real-time fetched from compiled time constant __TIME__
    //calculate minutes
    if (sec >= 60)
     7f2:	8c 33       	cpi	r24, 0x3C	; 60
     7f4:	5c f0       	brlt	.+22     	; 0x80c <proceedClock+0x2e>
    {
        sec%=60;
        min++;
     7f6:	90 91 1d 04 	lds	r25, 0x041D	; 0x80041d <min>
     7fa:	9f 5f       	subi	r25, 0xFF	; 255
     7fc:	90 93 1d 04 	sts	0x041D, r25	; 0x80041d <min>

    //real-time fetched from compiled time constant __TIME__
    //calculate minutes
    if (sec >= 60)
    {
        sec%=60;
     800:	6c e3       	ldi	r22, 0x3C	; 60
     802:	0e 94 45 09 	call	0x128a	; 0x128a <__divmodqi4>
        min++;
        sec += 2;
     806:	9e 5f       	subi	r25, 0xFE	; 254
     808:	90 93 1c 04 	sts	0x041C, r25	; 0x80041c <sec>
    }
    //system run-time acculated time
    //calculate minutes
    if (accumulatedSec >= 60)
     80c:	2c 33       	cpi	r18, 0x3C	; 60
     80e:	64 f0       	brlt	.+24     	; 0x828 <proceedClock+0x4a>
    {
        accumulatedSec%=60;
        accumulatedMin++;
     810:	80 91 16 04 	lds	r24, 0x0416	; 0x800416 <accumulatedMin>
     814:	8f 5f       	subi	r24, 0xFF	; 255
     816:	80 93 16 04 	sts	0x0416, r24	; 0x800416 <accumulatedMin>
    }
    //system run-time acculated time
    //calculate minutes
    if (accumulatedSec >= 60)
    {
        accumulatedSec%=60;
     81a:	82 2f       	mov	r24, r18
     81c:	6c e3       	ldi	r22, 0x3C	; 60
     81e:	0e 94 45 09 	call	0x128a	; 0x128a <__divmodqi4>
        accumulatedMin++;
        accumulatedSec += 2;
     822:	9e 5f       	subi	r25, 0xFE	; 254
     824:	90 93 15 04 	sts	0x0415, r25	; 0x800415 <accumulatedSec>
    }

    //real-time fetched from compiled time constant __TIME__
    //calculate hours
    if (min >= 60)
     828:	80 91 1d 04 	lds	r24, 0x041D	; 0x80041d <min>
     82c:	8c 33       	cpi	r24, 0x3C	; 60
     82e:	54 f0       	brlt	.+20     	; 0x844 <proceedClock+0x66>
    {
        min%=60;
     830:	6c e3       	ldi	r22, 0x3C	; 60
     832:	0e 94 45 09 	call	0x128a	; 0x128a <__divmodqi4>
     836:	90 93 1d 04 	sts	0x041D, r25	; 0x80041d <min>
        hour++;
     83a:	80 91 1e 04 	lds	r24, 0x041E	; 0x80041e <hour>
     83e:	8f 5f       	subi	r24, 0xFF	; 255
     840:	80 93 1e 04 	sts	0x041E, r24	; 0x80041e <hour>
    }
    //system run-time acculated time
    //calculate hours
    //if ((accumulatedMin == 60) && (hourlyAdjusted == 0))
    if (accumulatedMin == 60)
     844:	80 91 16 04 	lds	r24, 0x0416	; 0x800416 <accumulatedMin>
     848:	8c 33       	cpi	r24, 0x3C	; 60
     84a:	61 f4       	brne	.+24     	; 0x864 <proceedClock+0x86>
    {
        // adjust time by experiments
        //hourlyAdjusted = 1;
        sec -= 20;
     84c:	80 91 1c 04 	lds	r24, 0x041C	; 0x80041c <sec>
     850:	84 51       	subi	r24, 0x14	; 20
     852:	80 93 1c 04 	sts	0x041C, r24	; 0x80041c <sec>
        accumulatedMin = 0;
     856:	10 92 16 04 	sts	0x0416, r1	; 0x800416 <accumulatedMin>
        accumulatedHour++;
     85a:	80 91 17 04 	lds	r24, 0x0417	; 0x800417 <accumulatedHour>
     85e:	8f 5f       	subi	r24, 0xFF	; 255
     860:	80 93 17 04 	sts	0x0417, r24	; 0x800417 <accumulatedHour>
    }
    /*
    if (accumulatedMin == 59)
        hourlyAdjusted = 0;
    */
    if (hour >= 24)
     864:	80 91 1e 04 	lds	r24, 0x041E	; 0x80041e <hour>
     868:	88 31       	cpi	r24, 0x18	; 24
     86a:	04 f1       	brlt	.+64     	; 0x8ac <proceedClock+0xce>
    {
        hour=0;
     86c:	10 92 1e 04 	sts	0x041E, r1	; 0x80041e <hour>
        date++;
     870:	80 91 19 04 	lds	r24, 0x0419	; 0x800419 <date>
     874:	8f 5f       	subi	r24, 0xFF	; 255
     876:	80 93 19 04 	sts	0x0419, r24	; 0x800419 <date>
        day++;
     87a:	80 91 18 04 	lds	r24, 0x0418	; 0x800418 <day>
     87e:	8f 5f       	subi	r24, 0xFF	; 255
        if (day >= 7)
     880:	87 30       	cpi	r24, 0x07	; 7
     882:	1c f4       	brge	.+6      	; 0x88a <proceedClock+0xac>
    */
    if (hour >= 24)
    {
        hour=0;
        date++;
        day++;
     884:	80 93 18 04 	sts	0x0418, r24	; 0x800418 <day>
     888:	11 c0       	rjmp	.+34     	; 0x8ac <proceedClock+0xce>
        if (day >= 7)
            day %= 7;
     88a:	93 e9       	ldi	r25, 0x93	; 147
     88c:	89 02       	muls	r24, r25
     88e:	91 2d       	mov	r25, r1
     890:	11 24       	eor	r1, r1
     892:	98 0f       	add	r25, r24
     894:	95 95       	asr	r25
     896:	95 95       	asr	r25
     898:	87 fd       	sbrc	r24, 7
     89a:	93 95       	inc	r25
     89c:	29 2f       	mov	r18, r25
     89e:	22 0f       	add	r18, r18
     8a0:	22 0f       	add	r18, r18
     8a2:	22 0f       	add	r18, r18
     8a4:	29 1b       	sub	r18, r25
     8a6:	82 1b       	sub	r24, r18
     8a8:	80 93 18 04 	sts	0x0418, r24	; 0x800418 <day>
    }
    switch (month)
     8ac:	20 91 1a 04 	lds	r18, 0x041A	; 0x80041a <month>
     8b0:	82 2f       	mov	r24, r18
     8b2:	02 2e       	mov	r0, r18
     8b4:	00 0c       	add	r0, r0
     8b6:	99 0b       	sbc	r25, r25
     8b8:	aa 0b       	sbc	r26, r26
     8ba:	bb 0b       	sbc	r27, r27
     8bc:	fc 01       	movw	r30, r24
     8be:	31 97       	sbiw	r30, 0x01	; 1
     8c0:	ec 30       	cpi	r30, 0x0C	; 12
     8c2:	f1 05       	cpc	r31, r1
     8c4:	60 f4       	brcc	.+24     	; 0x8de <proceedClock+0x100>
     8c6:	e5 5c       	subi	r30, 0xC5	; 197
     8c8:	ff 4f       	sbci	r31, 0xFF	; 255
     8ca:	0c 94 53 09 	jmp	0x12a6	; 0x12a6 <__tablejump2__>
        case 5:
        case 7:
        case 8:
        case 10:
        case 12:
            monthEndDate = 31;
     8ce:	8f e1       	ldi	r24, 0x1F	; 31
     8d0:	80 93 2a 04 	sts	0x042A, r24	; 0x80042a <monthEndDate>
            break;
     8d4:	07 c0       	rjmp	.+14     	; 0x8e4 <proceedClock+0x106>
        case 2:
            monthEndDate = 28;
     8d6:	8c e1       	ldi	r24, 0x1C	; 28
     8d8:	80 93 2a 04 	sts	0x042A, r24	; 0x80042a <monthEndDate>
            break;
     8dc:	03 c0       	rjmp	.+6      	; 0x8e4 <proceedClock+0x106>
        default:
            monthEndDate = 30;
     8de:	8e e1       	ldi	r24, 0x1E	; 30
     8e0:	80 93 2a 04 	sts	0x042A, r24	; 0x80042a <monthEndDate>
    }//switch (month)

    if (date > monthEndDate)
     8e4:	90 91 19 04 	lds	r25, 0x0419	; 0x800419 <date>
     8e8:	80 91 2a 04 	lds	r24, 0x042A	; 0x80042a <monthEndDate>
     8ec:	89 17       	cp	r24, r25
     8ee:	34 f4       	brge	.+12     	; 0x8fc <proceedClock+0x11e>
    {
        date=1;
     8f0:	81 e0       	ldi	r24, 0x01	; 1
     8f2:	80 93 19 04 	sts	0x0419, r24	; 0x800419 <date>
        month++;
     8f6:	2f 5f       	subi	r18, 0xFF	; 255
     8f8:	20 93 1a 04 	sts	0x041A, r18	; 0x80041a <month>
    }

    if (month > 12)
     8fc:	80 91 1a 04 	lds	r24, 0x041A	; 0x80041a <month>
     900:	8d 30       	cpi	r24, 0x0D	; 13
     902:	44 f0       	brlt	.+16     	; 0x914 <__stack+0x15>
    {
        month=1;
     904:	81 e0       	ldi	r24, 0x01	; 1
     906:	80 93 1a 04 	sts	0x041A, r24	; 0x80041a <month>
        year++;
     90a:	80 91 1b 04 	lds	r24, 0x041B	; 0x80041b <year>
     90e:	8f 5f       	subi	r24, 0xFF	; 255
     910:	80 93 1b 04 	sts	0x041B, r24	; 0x80041b <year>
     914:	08 95       	ret

00000916 <__vector_6>:
	}//if ((btcnt++ % 2) == 0)
}//ISR(PCINT2_vect)

//-----------------------------------
ISR(WDT_vect)
{
     916:	1f 92       	push	r1
     918:	0f 92       	push	r0
     91a:	0f b6       	in	r0, 0x3f	; 63
     91c:	0f 92       	push	r0
     91e:	11 24       	eor	r1, r1
     920:	2f 93       	push	r18
     922:	3f 93       	push	r19
     924:	4f 93       	push	r20
     926:	5f 93       	push	r21
     928:	6f 93       	push	r22
     92a:	7f 93       	push	r23
     92c:	8f 93       	push	r24
     92e:	9f 93       	push	r25
     930:	af 93       	push	r26
     932:	bf 93       	push	r27
     934:	ef 93       	push	r30
     936:	ff 93       	push	r31
    //PORTB |= _BV(PB4);
    proceedClock();
     938:	0e 94 ef 03 	call	0x7de	; 0x7de <proceedClock>
    lcd_dispWords(wd%MAXWORDCNT);
     93c:	80 91 1f 04 	lds	r24, 0x041F	; 0x80041f <wd>
     940:	9d ec       	ldi	r25, 0xCD	; 205
     942:	89 9f       	mul	r24, r25
     944:	91 2d       	mov	r25, r1
     946:	11 24       	eor	r1, r1
     948:	96 95       	lsr	r25
     94a:	96 95       	lsr	r25
     94c:	96 95       	lsr	r25
     94e:	99 0f       	add	r25, r25
     950:	29 2f       	mov	r18, r25
     952:	22 0f       	add	r18, r18
     954:	22 0f       	add	r18, r18
     956:	92 0f       	add	r25, r18
     958:	89 1b       	sub	r24, r25
     95a:	0e 94 ff 06 	call	0xdfe	; 0xdfe <lcd_dispWords>
    wd++;
     95e:	80 91 1f 04 	lds	r24, 0x041F	; 0x80041f <wd>
     962:	8f 5f       	subi	r24, 0xFF	; 255
     964:	80 93 1f 04 	sts	0x041F, r24	; 0x80041f <wd>
    //lcd_dispRealClock();
    //PORTB &= ~_BV(PB4);
}//ISR(WDT_vect)
     968:	ff 91       	pop	r31
     96a:	ef 91       	pop	r30
     96c:	bf 91       	pop	r27
     96e:	af 91       	pop	r26
     970:	9f 91       	pop	r25
     972:	8f 91       	pop	r24
     974:	7f 91       	pop	r23
     976:	6f 91       	pop	r22
     978:	5f 91       	pop	r21
     97a:	4f 91       	pop	r20
     97c:	3f 91       	pop	r19
     97e:	2f 91       	pop	r18
     980:	0f 90       	pop	r0
     982:	0f be       	out	0x3f, r0	; 63
     984:	0f 90       	pop	r0
     986:	1f 90       	pop	r1
     988:	18 95       	reti

0000098a <lcd_write_4>:
  Exit:     no parameters
  Notes:    use either time delays or the busy flag
*/
void lcd_write_4(uint8_t theByte)
{
    lcd_D7_port &= ~_BV(lcd_D7_bit);                        // assume that data is '0'
     98a:	2a 98       	cbi	0x05, 2	; 5
    if (theByte & 1<<7) lcd_D7_port |= _BV(lcd_D7_bit);     // make data = '1' if necessary
     98c:	88 23       	and	r24, r24
     98e:	0c f4       	brge	.+2      	; 0x992 <lcd_write_4+0x8>
     990:	2a 9a       	sbi	0x05, 2	; 5

    lcd_D6_port &= ~_BV(lcd_D6_bit);                        // repeat for each data bit
     992:	2b 98       	cbi	0x05, 3	; 5
    if (theByte & 1<<6) lcd_D6_port |= _BV(lcd_D6_bit);
     994:	86 fd       	sbrc	r24, 6
     996:	2b 9a       	sbi	0x05, 3	; 5

    lcd_D5_port &= ~_BV(lcd_D5_bit);
     998:	2c 98       	cbi	0x05, 4	; 5
    if (theByte & 1<<5) lcd_D5_port |= _BV(lcd_D5_bit);
     99a:	85 fd       	sbrc	r24, 5
     99c:	2c 9a       	sbi	0x05, 4	; 5

    lcd_D4_port &= ~_BV(lcd_D4_bit);
     99e:	2d 98       	cbi	0x05, 5	; 5
    if (theByte & 1<<4) lcd_D4_port |= _BV(lcd_D4_bit);
     9a0:	84 fd       	sbrc	r24, 4
     9a2:	2d 9a       	sbi	0x05, 5	; 5

// write the data
                                                    // 'Address set-up time' (40 nS)
    lcd_E_port |= _BV(lcd_E_bit);                   // Enable pin high
     9a4:	5c 9a       	sbi	0x0b, 4	; 11
	#else
		//round up by default
		__ticks_dc = (uint32_t)(ceil(fabs(__tmp)));
	#endif

	__builtin_avr_delay_cycles(__ticks_dc);
     9a6:	00 00       	nop
    _delay_us(1);                                   // implement 'Data set-up time' (80 nS) and 'Enable pulse width' (230 nS)
    lcd_E_port &= ~_BV(lcd_E_bit);                  // Enable pin low
     9a8:	5c 98       	cbi	0x0b, 4	; 11
     9aa:	00 00       	nop
     9ac:	08 95       	ret

000009ae <lcd_write_character_4d>:
  Exit:     no parameters
  Notes:    does not deal with RW (busy flag is not implemented)
*/

void lcd_write_character_4d(uint8_t theData)
{
     9ae:	cf 93       	push	r28
     9b0:	c8 2f       	mov	r28, r24
    lcd_RS_port |= _BV(lcd_RS_bit);                 // select the Data Register (RS high)
     9b2:	5b 9a       	sbi	0x0b, 3	; 11
    lcd_E_port &= ~_BV(lcd_E_bit);                  // make sure E is initially low
     9b4:	5c 98       	cbi	0x0b, 4	; 11
    lcd_write_4(theData);                           // write the upper 4-bits of the data
     9b6:	0e 94 c5 04 	call	0x98a	; 0x98a <lcd_write_4>
    lcd_write_4(theData << 4);                      // write the lower 4-bits of the data
     9ba:	8c 2f       	mov	r24, r28
     9bc:	82 95       	swap	r24
     9be:	80 7f       	andi	r24, 0xF0	; 240
     9c0:	0e 94 c5 04 	call	0x98a	; 0x98a <lcd_write_4>
}
     9c4:	cf 91       	pop	r28
     9c6:	08 95       	ret

000009c8 <lcd_write_string_4d>:
  Entry:    (theString) is the string to be displayed
  Exit:     no parameters
  Notes:    uses time delays rather than checking the busy flag
*/
void lcd_write_string_4d(uint8_t theString[])
{
     9c8:	0f 93       	push	r16
     9ca:	1f 93       	push	r17
     9cc:	cf 93       	push	r28
     9ce:	df 93       	push	r29
     9d0:	00 d0       	rcall	.+0      	; 0x9d2 <lcd_write_string_4d+0xa>
     9d2:	cd b7       	in	r28, 0x3d	; 61
     9d4:	de b7       	in	r29, 0x3e	; 62
     9d6:	8c 01       	movw	r16, r24
    volatile int i = 0;                             // character counter*/
     9d8:	1a 82       	std	Y+2, r1	; 0x02
     9da:	19 82       	std	Y+1, r1	; 0x01
    while (theString[i] != 0)
     9dc:	e9 81       	ldd	r30, Y+1	; 0x01
     9de:	fa 81       	ldd	r31, Y+2	; 0x02
     9e0:	e8 0f       	add	r30, r24
     9e2:	f9 1f       	adc	r31, r25
     9e4:	80 81       	ld	r24, Z
     9e6:	88 23       	and	r24, r24
     9e8:	b9 f0       	breq	.+46     	; 0xa18 <lcd_write_string_4d+0x50>
    {
        lcd_write_character_4d(theString[i]);
     9ea:	e9 81       	ldd	r30, Y+1	; 0x01
     9ec:	fa 81       	ldd	r31, Y+2	; 0x02
     9ee:	e0 0f       	add	r30, r16
     9f0:	f1 1f       	adc	r31, r17
     9f2:	80 81       	ld	r24, Z
     9f4:	0e 94 d7 04 	call	0x9ae	; 0x9ae <lcd_write_character_4d>
        i++;
     9f8:	29 81       	ldd	r18, Y+1	; 0x01
     9fa:	3a 81       	ldd	r19, Y+2	; 0x02
     9fc:	2f 5f       	subi	r18, 0xFF	; 255
     9fe:	3f 4f       	sbci	r19, 0xFF	; 255
     a00:	3a 83       	std	Y+2, r19	; 0x02
     a02:	29 83       	std	Y+1, r18	; 0x01
     a04:	84 e1       	ldi	r24, 0x14	; 20
     a06:	8a 95       	dec	r24
     a08:	f1 f7       	brne	.-4      	; 0xa06 <lcd_write_string_4d+0x3e>
  Notes:    uses time delays rather than checking the busy flag
*/
void lcd_write_string_4d(uint8_t theString[])
{
    volatile int i = 0;                             // character counter*/
    while (theString[i] != 0)
     a0a:	e9 81       	ldd	r30, Y+1	; 0x01
     a0c:	fa 81       	ldd	r31, Y+2	; 0x02
     a0e:	e0 0f       	add	r30, r16
     a10:	f1 1f       	adc	r31, r17
     a12:	80 81       	ld	r24, Z
     a14:	81 11       	cpse	r24, r1
     a16:	e9 cf       	rjmp	.-46     	; 0x9ea <lcd_write_string_4d+0x22>
    {
        lcd_write_character_4d(theString[i]);
        i++;
        _delay_us(DELAY_INST);                              // 40 uS delay (min)
    }
}
     a18:	0f 90       	pop	r0
     a1a:	0f 90       	pop	r0
     a1c:	df 91       	pop	r29
     a1e:	cf 91       	pop	r28
     a20:	1f 91       	pop	r17
     a22:	0f 91       	pop	r16
     a24:	08 95       	ret

00000a26 <lcd_write_instruction_4d>:
  Entry:    (theInstruction) is the information to be sent to the instruction register
  Exit:     no parameters
  Notes:    does not deal with RW (busy flag is not implemented)
*/
void lcd_write_instruction_4d(uint8_t theInstruction)
{
     a26:	cf 93       	push	r28
     a28:	c8 2f       	mov	r28, r24
    lcd_RS_port &= ~_BV(lcd_RS_bit);                // select the Instruction Register (RS low)
     a2a:	5b 98       	cbi	0x0b, 3	; 11
    lcd_E_port &= ~_BV(lcd_E_bit);                  // make sure E is initially low
     a2c:	5c 98       	cbi	0x0b, 4	; 11
    lcd_write_4(theInstruction);                    // write the upper 4-bits of the data
     a2e:	0e 94 c5 04 	call	0x98a	; 0x98a <lcd_write_4>
    lcd_write_4(theInstruction << 4);               // write the lower 4-bits of the data
     a32:	8c 2f       	mov	r24, r28
     a34:	82 95       	swap	r24
     a36:	80 7f       	andi	r24, 0xF0	; 240
     a38:	0e 94 c5 04 	call	0x98a	; 0x98a <lcd_write_4>
}
     a3c:	cf 91       	pop	r28
     a3e:	08 95       	ret

00000a40 <lcd_init_4d>:
	#else
		//round up by default
		__ticks_dc = (uint32_t)(ceil(fabs(__tmp)));
	#endif

	__builtin_avr_delay_cycles(__ticks_dc);
     a40:	8f e0       	ldi	r24, 0x0F	; 15
     a42:	97 e2       	ldi	r25, 0x27	; 39
     a44:	01 97       	sbiw	r24, 0x01	; 1
     a46:	f1 f7       	brne	.-4      	; 0xa44 <lcd_init_4d+0x4>
     a48:	00 c0       	rjmp	.+0      	; 0xa4a <lcd_init_4d+0xa>
     a4a:	00 00       	nop
//   this instruction can be sent on just the four available data lines and it will be interpreted
//   properly by the LCD controller.  The 'lcd_write_4' subroutine will accomplish this if the
//   control lines have previously been configured properly.

// Set up the RS and E lines for the 'lcd_write_4' subroutine.
    lcd_RS_port &= ~_BV(lcd_RS_bit);                // select the Instruction Register (RS low)
     a4c:	5b 98       	cbi	0x0b, 3	; 11
    lcd_E_port &= ~_BV(lcd_E_bit);                  // make sure E is initially low
     a4e:	5c 98       	cbi	0x0b, 4	; 11

// Reset the LCD controller
    lcd_write_4(lcd_FunctionReset);                 // first part of reset sequence
     a50:	80 e3       	ldi	r24, 0x30	; 48
     a52:	0e 94 c5 04 	call	0x98a	; 0x98a <lcd_write_4>
     a56:	81 ee       	ldi	r24, 0xE1	; 225
     a58:	94 e0       	ldi	r25, 0x04	; 4
     a5a:	01 97       	sbiw	r24, 0x01	; 1
     a5c:	f1 f7       	brne	.-4      	; 0xa5a <lcd_init_4d+0x1a>
     a5e:	00 c0       	rjmp	.+0      	; 0xa60 <lcd_init_4d+0x20>
     a60:	00 00       	nop
    //_delay_ms(10);                                  // 4.1 mS delay (min)
	_delay_ms(5); // insoo modifed (Jul 14, 2017)

    lcd_write_4(lcd_FunctionReset);                 // second part of reset sequence
     a62:	80 e3       	ldi	r24, 0x30	; 48
     a64:	0e 94 c5 04 	call	0x98a	; 0x98a <lcd_write_4>
     a68:	8f e2       	ldi	r24, 0x2F	; 47
     a6a:	95 e7       	ldi	r25, 0x75	; 117
     a6c:	01 97       	sbiw	r24, 0x01	; 1
     a6e:	f1 f7       	brne	.-4      	; 0xa6c <lcd_init_4d+0x2c>
     a70:	00 c0       	rjmp	.+0      	; 0xa72 <lcd_init_4d+0x32>
     a72:	00 00       	nop
    //_delay_us(200);                                 // 100uS delay (min)
	_delay_ms(120); // insoo modifed (Jul 14, 2017)

    lcd_write_4(lcd_FunctionReset);                 // third part of reset sequence
     a74:	80 e3       	ldi	r24, 0x30	; 48
     a76:	0e 94 c5 04 	call	0x98a	; 0x98a <lcd_write_4>
     a7a:	83 ec       	ldi	r24, 0xC3	; 195
     a7c:	99 e0       	ldi	r25, 0x09	; 9
     a7e:	01 97       	sbiw	r24, 0x01	; 1
     a80:	f1 f7       	brne	.-4      	; 0xa7e <lcd_init_4d+0x3e>
     a82:	00 c0       	rjmp	.+0      	; 0xa84 <lcd_init_4d+0x44>
     a84:	00 00       	nop
// Preliminary Function Set instruction - used only to set the 4-bit mode.
// The number of lines or the font cannot be set at this time since the controller is still in the
//  8-bit mode, but the data transfer mode can be changed since this parameter is determined by one
//  of the upper four bits of the instruction.

    lcd_write_4(lcd_FunctionSet4bit);               // set 4-bit mode
     a86:	88 e2       	ldi	r24, 0x28	; 40
     a88:	0e 94 c5 04 	call	0x98a	; 0x98a <lcd_write_4>
	#else
		//round up by default
		__ticks_dc = (uint32_t)(ceil(fabs(__tmp)));
	#endif

	__builtin_avr_delay_cycles(__ticks_dc);
     a8c:	94 e1       	ldi	r25, 0x14	; 20
     a8e:	9a 95       	dec	r25
     a90:	f1 f7       	brne	.-4      	; 0xa8e <lcd_init_4d+0x4e>
    _delay_us(DELAY_INST);                                  // 40uS delay (min)

// Function Set instruction
    lcd_write_instruction_4d(lcd_FunctionSet4bit);   // set mode, lines, and font
     a92:	88 e2       	ldi	r24, 0x28	; 40
     a94:	0e 94 13 05 	call	0xa26	; 0xa26 <lcd_write_instruction_4d>
     a98:	84 e1       	ldi	r24, 0x14	; 20
     a9a:	8a 95       	dec	r24
     a9c:	f1 f7       	brne	.-4      	; 0xa9a <lcd_init_4d+0x5a>
// The next three instructions are specified in the data sheet as part of the initialization routine,
//  so it is a good idea (but probably not necessary) to do them just as specified and then redo them
//  later if the application requires a different configuration.

// Display On/Off Control instruction
    lcd_write_instruction_4d(lcd_DisplayOff);        // turn display OFF
     a9e:	88 e0       	ldi	r24, 0x08	; 8
     aa0:	0e 94 13 05 	call	0xa26	; 0xa26 <lcd_write_instruction_4d>
     aa4:	94 e1       	ldi	r25, 0x14	; 20
     aa6:	9a 95       	dec	r25
     aa8:	f1 f7       	brne	.-4      	; 0xaa6 <lcd_init_4d+0x66>
    _delay_us(DELAY_INST);                                  // 40uS delay (min)

// Clear Display instruction
    lcd_write_instruction_4d(lcd_Clear);             // clear display RAM
     aaa:	81 e0       	ldi	r24, 0x01	; 1
     aac:	0e 94 13 05 	call	0xa26	; 0xa26 <lcd_write_instruction_4d>
	#else
		//round up by default
		__ticks_dc = (uint32_t)(ceil(fabs(__tmp)));
	#endif

	__builtin_avr_delay_cycles(__ticks_dc);
     ab0:	87 ee       	ldi	r24, 0xE7	; 231
     ab2:	93 e0       	ldi	r25, 0x03	; 3
     ab4:	01 97       	sbiw	r24, 0x01	; 1
     ab6:	f1 f7       	brne	.-4      	; 0xab4 <lcd_init_4d+0x74>
     ab8:	00 c0       	rjmp	.+0      	; 0xaba <lcd_init_4d+0x7a>
     aba:	00 00       	nop
    _delay_ms(4);                                   // 1.64 mS delay (min)

// ; Entry Mode Set instruction
    lcd_write_instruction_4d(lcd_EntryMode);         // set desired shift characteristics
     abc:	86 e0       	ldi	r24, 0x06	; 6
     abe:	0e 94 13 05 	call	0xa26	; 0xa26 <lcd_write_instruction_4d>
	#else
		//round up by default
		__ticks_dc = (uint32_t)(ceil(fabs(__tmp)));
	#endif

	__builtin_avr_delay_cycles(__ticks_dc);
     ac2:	94 e1       	ldi	r25, 0x14	; 20
     ac4:	9a 95       	dec	r25
     ac6:	f1 f7       	brne	.-4      	; 0xac4 <lcd_init_4d+0x84>

// This is the end of the LCD controller initialization as specified in the data sheet, but the display
//  has been left in the OFF condition.  This is a good time to turn the display back ON.

// Display On/Off Control instruction
    lcd_write_instruction_4d(lcd_DisplayOn);         // turn the display ON
     ac8:	8c e0       	ldi	r24, 0x0C	; 12
     aca:	0e 94 13 05 	call	0xa26	; 0xa26 <lcd_write_instruction_4d>
     ace:	84 e1       	ldi	r24, 0x14	; 20
     ad0:	8a 95       	dec	r24
     ad2:	f1 f7       	brne	.-4      	; 0xad0 <lcd_init_4d+0x90>
     ad4:	08 95       	ret

00000ad6 <LCD_BCDDigits>:
	#else
		//round up by default
		__ticks_dc = (uint32_t)(ceil(fabs(__tmp)));
	#endif

	__builtin_avr_delay_cycles(__ticks_dc);
     ad6:	cf 93       	push	r28
     ad8:	c8 2f       	mov	r28, r24
     ada:	82 95       	swap	r24
     adc:	8f 70       	andi	r24, 0x0F	; 15
     ade:	80 5d       	subi	r24, 0xD0	; 208
     ae0:	0e 94 d7 04 	call	0x9ae	; 0x9ae <lcd_write_character_4d>
     ae4:	8c 2f       	mov	r24, r28
     ae6:	8f 70       	andi	r24, 0x0F	; 15
     ae8:	80 5d       	subi	r24, 0xD0	; 208
     aea:	0e 94 d7 04 	call	0x9ae	; 0x9ae <lcd_write_character_4d>
     aee:	cf 91       	pop	r28
     af0:	08 95       	ret

00000af2 <turnOnLCDBacklight>:
     af2:	29 98       	cbi	0x05, 1	; 5
     af4:	08 95       	ret

00000af6 <turnOffLCDBacklight>:
     af6:	29 9a       	sbi	0x05, 1	; 5
     af8:	08 95       	ret

00000afa <LCD_blankChar>:
     afa:	cf 93       	push	r28
     afc:	df 93       	push	r29
     afe:	88 23       	and	r24, r24
     b00:	41 f0       	breq	.+16     	; 0xb12 <LCD_blankChar+0x18>
     b02:	d8 2f       	mov	r29, r24
     b04:	c0 e0       	ldi	r28, 0x00	; 0
     b06:	80 e2       	ldi	r24, 0x20	; 32
     b08:	0e 94 d7 04 	call	0x9ae	; 0x9ae <lcd_write_character_4d>
     b0c:	cf 5f       	subi	r28, 0xFF	; 255
     b0e:	cd 13       	cpse	r28, r29
     b10:	fa cf       	rjmp	.-12     	; 0xb06 <LCD_blankChar+0xc>
     b12:	df 91       	pop	r29
     b14:	cf 91       	pop	r28
     b16:	08 95       	ret

00000b18 <lcd_dispRealClock>:
     b18:	cf 93       	push	r28
     b1a:	df 93       	push	r29
     b1c:	cd b7       	in	r28, 0x3d	; 61
     b1e:	de b7       	in	r29, 0x3e	; 62
     b20:	6c 97       	sbiw	r28, 0x1c	; 28
     b22:	0f b6       	in	r0, 0x3f	; 63
     b24:	f8 94       	cli
     b26:	de bf       	out	0x3e, r29	; 62
     b28:	0f be       	out	0x3f, r0	; 63
     b2a:	cd bf       	out	0x3d, r28	; 61
     b2c:	80 e8       	ldi	r24, 0x80	; 128
     b2e:	0e 94 13 05 	call	0xa26	; 0xa26 <lcd_write_instruction_4d>
     b32:	84 e1       	ldi	r24, 0x14	; 20
     b34:	8a 95       	dec	r24
     b36:	f1 f7       	brne	.-4      	; 0xb34 <lcd_dispRealClock+0x1c>
     b38:	80 91 1e 04 	lds	r24, 0x041E	; 0x80041e <hour>
     b3c:	4a e0       	ldi	r20, 0x0A	; 10
     b3e:	be 01       	movw	r22, r28
     b40:	69 5f       	subi	r22, 0xF9	; 249
     b42:	7f 4f       	sbci	r23, 0xFF	; 255
     b44:	08 2e       	mov	r0, r24
     b46:	00 0c       	add	r0, r0
     b48:	99 0b       	sbc	r25, r25
     b4a:	0e 94 65 09 	call	0x12ca	; 0x12ca <__itoa_ncheck>
     b4e:	80 91 1d 04 	lds	r24, 0x041D	; 0x80041d <min>
     b52:	4a e0       	ldi	r20, 0x0A	; 10
     b54:	be 01       	movw	r22, r28
     b56:	6c 5f       	subi	r22, 0xFC	; 252
     b58:	7f 4f       	sbci	r23, 0xFF	; 255
     b5a:	08 2e       	mov	r0, r24
     b5c:	00 0c       	add	r0, r0
     b5e:	99 0b       	sbc	r25, r25
     b60:	0e 94 65 09 	call	0x12ca	; 0x12ca <__itoa_ncheck>
     b64:	80 91 1c 04 	lds	r24, 0x041C	; 0x80041c <sec>
     b68:	4a e0       	ldi	r20, 0x0A	; 10
     b6a:	be 01       	movw	r22, r28
     b6c:	6f 5f       	subi	r22, 0xFF	; 255
     b6e:	7f 4f       	sbci	r23, 0xFF	; 255
     b70:	08 2e       	mov	r0, r24
     b72:	00 0c       	add	r0, r0
     b74:	99 0b       	sbc	r25, r25
     b76:	0e 94 65 09 	call	0x12ca	; 0x12ca <__itoa_ncheck>
     b7a:	ce 01       	movw	r24, r28
     b7c:	07 96       	adiw	r24, 0x07	; 7
     b7e:	0e 94 e4 04 	call	0x9c8	; 0x9c8 <lcd_write_string_4d>
     b82:	8b ee       	ldi	r24, 0xEB	; 235
     b84:	93 e0       	ldi	r25, 0x03	; 3
     b86:	0e 94 e4 04 	call	0x9c8	; 0x9c8 <lcd_write_string_4d>
     b8a:	ce 01       	movw	r24, r28
     b8c:	04 96       	adiw	r24, 0x04	; 4
     b8e:	0e 94 e4 04 	call	0x9c8	; 0x9c8 <lcd_write_string_4d>
     b92:	8b ee       	ldi	r24, 0xEB	; 235
     b94:	93 e0       	ldi	r25, 0x03	; 3
     b96:	0e 94 e4 04 	call	0x9c8	; 0x9c8 <lcd_write_string_4d>
     b9a:	ce 01       	movw	r24, r28
     b9c:	01 96       	adiw	r24, 0x01	; 1
     b9e:	0e 94 e4 04 	call	0x9c8	; 0x9c8 <lcd_write_string_4d>
     ba2:	89 ed       	ldi	r24, 0xD9	; 217
     ba4:	93 e0       	ldi	r25, 0x03	; 3
     ba6:	0e 94 e4 04 	call	0x9c8	; 0x9c8 <lcd_write_string_4d>
     baa:	84 e1       	ldi	r24, 0x14	; 20
     bac:	8a 95       	dec	r24
     bae:	f1 f7       	brne	.-4      	; 0xbac <lcd_dispRealClock+0x94>
     bb0:	80 ec       	ldi	r24, 0xC0	; 192
     bb2:	0e 94 13 05 	call	0xa26	; 0xa26 <lcd_write_instruction_4d>
     bb6:	84 e1       	ldi	r24, 0x14	; 20
     bb8:	8a 95       	dec	r24
     bba:	f1 f7       	brne	.-4      	; 0xbb8 <lcd_dispRealClock+0xa0>
     bbc:	80 91 1b 04 	lds	r24, 0x041B	; 0x80041b <year>
     bc0:	4a e0       	ldi	r20, 0x0A	; 10
     bc2:	be 01       	movw	r22, r28
     bc4:	66 5f       	subi	r22, 0xF6	; 246
     bc6:	7f 4f       	sbci	r23, 0xFF	; 255
     bc8:	08 2e       	mov	r0, r24
     bca:	00 0c       	add	r0, r0
     bcc:	99 0b       	sbc	r25, r25
     bce:	0e 94 65 09 	call	0x12ca	; 0x12ca <__itoa_ncheck>
     bd2:	80 91 1a 04 	lds	r24, 0x041A	; 0x80041a <month>
     bd6:	4a e0       	ldi	r20, 0x0A	; 10
     bd8:	be 01       	movw	r22, r28
     bda:	63 5f       	subi	r22, 0xF3	; 243
     bdc:	7f 4f       	sbci	r23, 0xFF	; 255
     bde:	08 2e       	mov	r0, r24
     be0:	00 0c       	add	r0, r0
     be2:	99 0b       	sbc	r25, r25
     be4:	0e 94 65 09 	call	0x12ca	; 0x12ca <__itoa_ncheck>
     be8:	80 91 19 04 	lds	r24, 0x0419	; 0x800419 <date>
     bec:	4a e0       	ldi	r20, 0x0A	; 10
     bee:	be 01       	movw	r22, r28
     bf0:	60 5f       	subi	r22, 0xF0	; 240
     bf2:	7f 4f       	sbci	r23, 0xFF	; 255
     bf4:	08 2e       	mov	r0, r24
     bf6:	00 0c       	add	r0, r0
     bf8:	99 0b       	sbc	r25, r25
     bfa:	0e 94 65 09 	call	0x12ca	; 0x12ca <__itoa_ncheck>
     bfe:	ce 01       	movw	r24, r28
     c00:	0a 96       	adiw	r24, 0x0a	; 10
     c02:	0e 94 e4 04 	call	0x9c8	; 0x9c8 <lcd_write_string_4d>
     c06:	85 ee       	ldi	r24, 0xE5	; 229
     c08:	93 e0       	ldi	r25, 0x03	; 3
     c0a:	0e 94 e4 04 	call	0x9c8	; 0x9c8 <lcd_write_string_4d>
     c0e:	ce 01       	movw	r24, r28
     c10:	0d 96       	adiw	r24, 0x0d	; 13
     c12:	0e 94 e4 04 	call	0x9c8	; 0x9c8 <lcd_write_string_4d>
     c16:	85 ee       	ldi	r24, 0xE5	; 229
     c18:	93 e0       	ldi	r25, 0x03	; 3
     c1a:	0e 94 e4 04 	call	0x9c8	; 0x9c8 <lcd_write_string_4d>
     c1e:	ce 01       	movw	r24, r28
     c20:	40 96       	adiw	r24, 0x10	; 16
     c22:	0e 94 e4 04 	call	0x9c8	; 0x9c8 <lcd_write_string_4d>
     c26:	83 ee       	ldi	r24, 0xE3	; 227
     c28:	93 e0       	ldi	r25, 0x03	; 3
     c2a:	0e 94 e4 04 	call	0x9c8	; 0x9c8 <lcd_write_string_4d>
     c2e:	e0 91 18 04 	lds	r30, 0x0418	; 0x800418 <day>
     c32:	8e 2f       	mov	r24, r30
     c34:	ee 0f       	add	r30, r30
     c36:	99 0b       	sbc	r25, r25
     c38:	aa 0b       	sbc	r26, r26
     c3a:	bb 0b       	sbc	r27, r27
     c3c:	87 30       	cpi	r24, 0x07	; 7
     c3e:	91 05       	cpc	r25, r1
     c40:	08 f0       	brcs	.+2      	; 0xc44 <lcd_dispRealClock+0x12c>
     c42:	43 c0       	rjmp	.+134    	; 0xcca <lcd_dispRealClock+0x1b2>
     c44:	fc 01       	movw	r30, r24
     c46:	e9 5b       	subi	r30, 0xB9	; 185
     c48:	ff 4f       	sbci	r31, 0xFF	; 255
     c4a:	0c 94 53 09 	jmp	0x12a6	; 0x12a6 <__tablejump2__>
     c4e:	83 e5       	ldi	r24, 0x53	; 83
     c50:	95 e7       	ldi	r25, 0x75	; 117
     c52:	ae e6       	ldi	r26, 0x6E	; 110
     c54:	b0 e0       	ldi	r27, 0x00	; 0
     c56:	8b 8b       	std	Y+19, r24	; 0x13
     c58:	9c 8b       	std	Y+20, r25	; 0x14
     c5a:	ad 8b       	std	Y+21, r26	; 0x15
     c5c:	be 8b       	std	Y+22, r27	; 0x16
     c5e:	35 c0       	rjmp	.+106    	; 0xcca <lcd_dispRealClock+0x1b2>
     c60:	8d e4       	ldi	r24, 0x4D	; 77
     c62:	9f e6       	ldi	r25, 0x6F	; 111
     c64:	ae e6       	ldi	r26, 0x6E	; 110
     c66:	b0 e0       	ldi	r27, 0x00	; 0
     c68:	8b 8b       	std	Y+19, r24	; 0x13
     c6a:	9c 8b       	std	Y+20, r25	; 0x14
     c6c:	ad 8b       	std	Y+21, r26	; 0x15
     c6e:	be 8b       	std	Y+22, r27	; 0x16
     c70:	2c c0       	rjmp	.+88     	; 0xcca <lcd_dispRealClock+0x1b2>
     c72:	84 e5       	ldi	r24, 0x54	; 84
     c74:	95 e7       	ldi	r25, 0x75	; 117
     c76:	a5 e6       	ldi	r26, 0x65	; 101
     c78:	b0 e0       	ldi	r27, 0x00	; 0
     c7a:	8b 8b       	std	Y+19, r24	; 0x13
     c7c:	9c 8b       	std	Y+20, r25	; 0x14
     c7e:	ad 8b       	std	Y+21, r26	; 0x15
     c80:	be 8b       	std	Y+22, r27	; 0x16
     c82:	23 c0       	rjmp	.+70     	; 0xcca <lcd_dispRealClock+0x1b2>
     c84:	87 e5       	ldi	r24, 0x57	; 87
     c86:	95 e6       	ldi	r25, 0x65	; 101
     c88:	a4 e6       	ldi	r26, 0x64	; 100
     c8a:	b0 e0       	ldi	r27, 0x00	; 0
     c8c:	8b 8b       	std	Y+19, r24	; 0x13
     c8e:	9c 8b       	std	Y+20, r25	; 0x14
     c90:	ad 8b       	std	Y+21, r26	; 0x15
     c92:	be 8b       	std	Y+22, r27	; 0x16
     c94:	1a c0       	rjmp	.+52     	; 0xcca <lcd_dispRealClock+0x1b2>
     c96:	84 e5       	ldi	r24, 0x54	; 84
     c98:	98 e6       	ldi	r25, 0x68	; 104
     c9a:	a5 e7       	ldi	r26, 0x75	; 117
     c9c:	b0 e0       	ldi	r27, 0x00	; 0
     c9e:	8b 8b       	std	Y+19, r24	; 0x13
     ca0:	9c 8b       	std	Y+20, r25	; 0x14
     ca2:	ad 8b       	std	Y+21, r26	; 0x15
     ca4:	be 8b       	std	Y+22, r27	; 0x16
     ca6:	11 c0       	rjmp	.+34     	; 0xcca <lcd_dispRealClock+0x1b2>
     ca8:	86 e4       	ldi	r24, 0x46	; 70
     caa:	92 e7       	ldi	r25, 0x72	; 114
     cac:	a9 e6       	ldi	r26, 0x69	; 105
     cae:	b0 e0       	ldi	r27, 0x00	; 0
     cb0:	8b 8b       	std	Y+19, r24	; 0x13
     cb2:	9c 8b       	std	Y+20, r25	; 0x14
     cb4:	ad 8b       	std	Y+21, r26	; 0x15
     cb6:	be 8b       	std	Y+22, r27	; 0x16
     cb8:	08 c0       	rjmp	.+16     	; 0xcca <lcd_dispRealClock+0x1b2>
     cba:	83 e5       	ldi	r24, 0x53	; 83
     cbc:	91 e6       	ldi	r25, 0x61	; 97
     cbe:	a4 e7       	ldi	r26, 0x74	; 116
     cc0:	b0 e0       	ldi	r27, 0x00	; 0
     cc2:	8b 8b       	std	Y+19, r24	; 0x13
     cc4:	9c 8b       	std	Y+20, r25	; 0x14
     cc6:	ad 8b       	std	Y+21, r26	; 0x15
     cc8:	be 8b       	std	Y+22, r27	; 0x16
     cca:	ce 01       	movw	r24, r28
     ccc:	43 96       	adiw	r24, 0x13	; 19
     cce:	0e 94 e4 04 	call	0x9c8	; 0x9c8 <lcd_write_string_4d>
     cd2:	8f ed       	ldi	r24, 0xDF	; 223
     cd4:	93 e0       	ldi	r25, 0x03	; 3
     cd6:	0e 94 e4 04 	call	0x9c8	; 0x9c8 <lcd_write_string_4d>
     cda:	84 e1       	ldi	r24, 0x14	; 20
     cdc:	8a 95       	dec	r24
     cde:	f1 f7       	brne	.-4      	; 0xcdc <lcd_dispRealClock+0x1c4>
     ce0:	6c 96       	adiw	r28, 0x1c	; 28
     ce2:	0f b6       	in	r0, 0x3f	; 63
     ce4:	f8 94       	cli
     ce6:	de bf       	out	0x3e, r29	; 62
     ce8:	0f be       	out	0x3f, r0	; 63
     cea:	cd bf       	out	0x3d, r28	; 61
     cec:	df 91       	pop	r29
     cee:	cf 91       	pop	r28
     cf0:	08 95       	ret

00000cf2 <lcd_dispAccumulatedTime>:
     cf2:	cf 93       	push	r28
     cf4:	df 93       	push	r29
     cf6:	cd b7       	in	r28, 0x3d	; 61
     cf8:	de b7       	in	r29, 0x3e	; 62
     cfa:	29 97       	sbiw	r28, 0x09	; 9
     cfc:	0f b6       	in	r0, 0x3f	; 63
     cfe:	f8 94       	cli
     d00:	de bf       	out	0x3e, r29	; 62
     d02:	0f be       	out	0x3f, r0	; 63
     d04:	cd bf       	out	0x3d, r28	; 61
     d06:	80 ec       	ldi	r24, 0xC0	; 192
     d08:	0e 94 13 05 	call	0xa26	; 0xa26 <lcd_write_instruction_4d>
     d0c:	84 e1       	ldi	r24, 0x14	; 20
     d0e:	8a 95       	dec	r24
     d10:	f1 f7       	brne	.-4      	; 0xd0e <lcd_dispAccumulatedTime+0x1c>
     d12:	80 91 17 04 	lds	r24, 0x0417	; 0x800417 <accumulatedHour>
     d16:	4a e0       	ldi	r20, 0x0A	; 10
     d18:	be 01       	movw	r22, r28
     d1a:	69 5f       	subi	r22, 0xF9	; 249
     d1c:	7f 4f       	sbci	r23, 0xFF	; 255
     d1e:	08 2e       	mov	r0, r24
     d20:	00 0c       	add	r0, r0
     d22:	99 0b       	sbc	r25, r25
     d24:	0e 94 65 09 	call	0x12ca	; 0x12ca <__itoa_ncheck>
     d28:	80 91 16 04 	lds	r24, 0x0416	; 0x800416 <accumulatedMin>
     d2c:	4a e0       	ldi	r20, 0x0A	; 10
     d2e:	be 01       	movw	r22, r28
     d30:	6c 5f       	subi	r22, 0xFC	; 252
     d32:	7f 4f       	sbci	r23, 0xFF	; 255
     d34:	08 2e       	mov	r0, r24
     d36:	00 0c       	add	r0, r0
     d38:	99 0b       	sbc	r25, r25
     d3a:	0e 94 65 09 	call	0x12ca	; 0x12ca <__itoa_ncheck>
     d3e:	80 91 15 04 	lds	r24, 0x0415	; 0x800415 <accumulatedSec>
     d42:	4a e0       	ldi	r20, 0x0A	; 10
     d44:	be 01       	movw	r22, r28
     d46:	6f 5f       	subi	r22, 0xFF	; 255
     d48:	7f 4f       	sbci	r23, 0xFF	; 255
     d4a:	08 2e       	mov	r0, r24
     d4c:	00 0c       	add	r0, r0
     d4e:	99 0b       	sbc	r25, r25
     d50:	0e 94 65 09 	call	0x12ca	; 0x12ca <__itoa_ncheck>
     d54:	ce 01       	movw	r24, r28
     d56:	07 96       	adiw	r24, 0x07	; 7
     d58:	0e 94 e4 04 	call	0x9c8	; 0x9c8 <lcd_write_string_4d>
     d5c:	8b ee       	ldi	r24, 0xEB	; 235
     d5e:	93 e0       	ldi	r25, 0x03	; 3
     d60:	0e 94 e4 04 	call	0x9c8	; 0x9c8 <lcd_write_string_4d>
     d64:	ce 01       	movw	r24, r28
     d66:	04 96       	adiw	r24, 0x04	; 4
     d68:	0e 94 e4 04 	call	0x9c8	; 0x9c8 <lcd_write_string_4d>
     d6c:	8b ee       	ldi	r24, 0xEB	; 235
     d6e:	93 e0       	ldi	r25, 0x03	; 3
     d70:	0e 94 e4 04 	call	0x9c8	; 0x9c8 <lcd_write_string_4d>
     d74:	ce 01       	movw	r24, r28
     d76:	01 96       	adiw	r24, 0x01	; 1
     d78:	0e 94 e4 04 	call	0x9c8	; 0x9c8 <lcd_write_string_4d>
     d7c:	8d ed       	ldi	r24, 0xDD	; 221
     d7e:	93 e0       	ldi	r25, 0x03	; 3
     d80:	0e 94 e4 04 	call	0x9c8	; 0x9c8 <lcd_write_string_4d>
     d84:	84 e1       	ldi	r24, 0x14	; 20
     d86:	8a 95       	dec	r24
     d88:	f1 f7       	brne	.-4      	; 0xd86 <lcd_dispAccumulatedTime+0x94>
     d8a:	29 96       	adiw	r28, 0x09	; 9
     d8c:	0f b6       	in	r0, 0x3f	; 63
     d8e:	f8 94       	cli
     d90:	de bf       	out	0x3e, r29	; 62
     d92:	0f be       	out	0x3f, r0	; 63
     d94:	cd bf       	out	0x3d, r28	; 61
     d96:	df 91       	pop	r29
     d98:	cf 91       	pop	r28
     d9a:	08 95       	ret

00000d9c <lcd_dispProgInfo>:
     d9c:	80 e8       	ldi	r24, 0x80	; 128
     d9e:	0e 94 13 05 	call	0xa26	; 0xa26 <lcd_write_instruction_4d>
     da2:	24 e1       	ldi	r18, 0x14	; 20
     da4:	2a 95       	dec	r18
     da6:	f1 f7       	brne	.-4      	; 0xda4 <lcd_dispProgInfo+0x8>
     da8:	8e e1       	ldi	r24, 0x1E	; 30
     daa:	91 e0       	ldi	r25, 0x01	; 1
     dac:	0e 94 e4 04 	call	0x9c8	; 0x9c8 <lcd_write_string_4d>
     db0:	80 ec       	ldi	r24, 0xC0	; 192
     db2:	0e 94 13 05 	call	0xa26	; 0xa26 <lcd_write_instruction_4d>
     db6:	84 e1       	ldi	r24, 0x14	; 20
     db8:	8a 95       	dec	r24
     dba:	f1 f7       	brne	.-4      	; 0xdb8 <lcd_dispProgInfo+0x1c>
     dbc:	8f e0       	ldi	r24, 0x0F	; 15
     dbe:	91 e0       	ldi	r25, 0x01	; 1
     dc0:	0e 94 e4 04 	call	0x9c8	; 0x9c8 <lcd_write_string_4d>
     dc4:	9f e3       	ldi	r25, 0x3F	; 63
     dc6:	2d e0       	ldi	r18, 0x0D	; 13
     dc8:	83 e0       	ldi	r24, 0x03	; 3
     dca:	91 50       	subi	r25, 0x01	; 1
     dcc:	20 40       	sbci	r18, 0x00	; 0
     dce:	80 40       	sbci	r24, 0x00	; 0
     dd0:	e1 f7       	brne	.-8      	; 0xdca <lcd_dispProgInfo+0x2e>
     dd2:	00 c0       	rjmp	.+0      	; 0xdd4 <lcd_dispProgInfo+0x38>
     dd4:	00 00       	nop
     dd6:	80 ec       	ldi	r24, 0xC0	; 192
     dd8:	0e 94 13 05 	call	0xa26	; 0xa26 <lcd_write_instruction_4d>
     ddc:	94 e1       	ldi	r25, 0x14	; 20
     dde:	9a 95       	dec	r25
     de0:	f1 f7       	brne	.-4      	; 0xdde <lcd_dispProgInfo+0x42>
     de2:	80 e0       	ldi	r24, 0x00	; 0
     de4:	91 e0       	ldi	r25, 0x01	; 1
     de6:	0e 94 e4 04 	call	0x9c8	; 0x9c8 <lcd_write_string_4d>
     dea:	2f e7       	ldi	r18, 0x7F	; 127
     dec:	8a e1       	ldi	r24, 0x1A	; 26
     dee:	96 e0       	ldi	r25, 0x06	; 6
     df0:	21 50       	subi	r18, 0x01	; 1
     df2:	80 40       	sbci	r24, 0x00	; 0
     df4:	90 40       	sbci	r25, 0x00	; 0
     df6:	e1 f7       	brne	.-8      	; 0xdf0 <lcd_dispProgInfo+0x54>
     df8:	00 c0       	rjmp	.+0      	; 0xdfa <lcd_dispProgInfo+0x5e>
     dfa:	00 00       	nop
     dfc:	08 95       	ret

00000dfe <lcd_dispWords>:

}//lcd_dispMenu

//-----------------------------------
void lcd_dispWords(uint8_t i)
{
     dfe:	ef 92       	push	r14
     e00:	ff 92       	push	r15
     e02:	0f 93       	push	r16
     e04:	1f 93       	push	r17
     e06:	cf 93       	push	r28
     e08:	df 93       	push	r29
     e0a:	e8 2e       	mov	r14, r24
	uint8_t n, wordLen;
	uint8_t *words0=0, *words1=0;
	//uint8_t str[3];
	// set cursor to start of first line
	lcd_write_instruction_4d(lcd_SetCursor | lcd_LineOne);
     e0c:	80 e8       	ldi	r24, 0x80	; 128
     e0e:	0e 94 13 05 	call	0xa26	; 0xa26 <lcd_write_instruction_4d>
	#else
		//round up by default
		__ticks_dc = (uint32_t)(ceil(fabs(__tmp)));
	#endif

	__builtin_avr_delay_cycles(__ticks_dc);
     e12:	24 e1       	ldi	r18, 0x14	; 20
     e14:	2a 95       	dec	r18
     e16:	f1 f7       	brne	.-4      	; 0xe14 <lcd_dispWords+0x16>
	_delay_us(DELAY_INST);                                  // 40 uS delay (min)
	// display the first line of information
	//words = malloc(320);
	switch (min%4)
     e18:	90 91 1d 04 	lds	r25, 0x041D	; 0x80041d <min>
     e1c:	93 78       	andi	r25, 0x83	; 131
     e1e:	1c f4       	brge	.+6      	; 0xe26 <lcd_dispWords+0x28>
     e20:	91 50       	subi	r25, 0x01	; 1
     e22:	9c 6f       	ori	r25, 0xFC	; 252
     e24:	9f 5f       	subi	r25, 0xFF	; 255
     e26:	99 23       	and	r25, r25
     e28:	ec f0       	brlt	.+58     	; 0xe64 <lcd_dispWords+0x66>
     e2a:	92 30       	cpi	r25, 0x02	; 2
     e2c:	1c f0       	brlt	.+6      	; 0xe34 <lcd_dispWords+0x36>
     e2e:	94 30       	cpi	r25, 0x04	; 4
     e30:	6c f0       	brlt	.+26     	; 0xe4c <lcd_dispWords+0x4e>
     e32:	18 c0       	rjmp	.+48     	; 0xe64 <lcd_dispWords+0x66>
	{
		case 0:
		case 1:
		words0 = words000[i][0];
     e34:	30 e2       	ldi	r19, 0x20	; 32
     e36:	e3 9e       	mul	r14, r19
     e38:	c0 01       	movw	r24, r0
     e3a:	11 24       	eor	r1, r1
     e3c:	ec 01       	movw	r28, r24
     e3e:	c3 59       	subi	r28, 0x93	; 147
     e40:	dd 4f       	sbci	r29, 0xFD	; 253
		words1 = words000[i][1];
     e42:	9c 01       	movw	r18, r24
     e44:	23 58       	subi	r18, 0x83	; 131
     e46:	3d 4f       	sbci	r19, 0xFD	; 253
     e48:	79 01       	movw	r14, r18
		break;
     e4a:	10 c0       	rjmp	.+32     	; 0xe6c <lcd_dispWords+0x6e>
		case 2:
		case 3:
		words0 = words001[i][0];;
     e4c:	30 e2       	ldi	r19, 0x20	; 32
     e4e:	e3 9e       	mul	r14, r19
     e50:	c0 01       	movw	r24, r0
     e52:	11 24       	eor	r1, r1
     e54:	ec 01       	movw	r28, r24
     e56:	c3 5d       	subi	r28, 0xD3	; 211
     e58:	de 4f       	sbci	r29, 0xFE	; 254
		words1 = words001[i][1];
     e5a:	9c 01       	movw	r18, r24
     e5c:	23 5c       	subi	r18, 0xC3	; 195
     e5e:	3e 4f       	sbci	r19, 0xFE	; 254
     e60:	79 01       	movw	r14, r18
		break;
     e62:	04 c0       	rjmp	.+8      	; 0xe6c <lcd_dispWords+0x6e>

//-----------------------------------
void lcd_dispWords(uint8_t i)
{
	uint8_t n, wordLen;
	uint8_t *words0=0, *words1=0;
     e64:	e1 2c       	mov	r14, r1
     e66:	f1 2c       	mov	r15, r1
     e68:	c0 e0       	ldi	r28, 0x00	; 0
     e6a:	d0 e0       	ldi	r29, 0x00	; 0
		words0 = words001[i][0];;
		words1 = words001[i][1];
		break;
	}
	//lcd_write_string_4d(words000[i][0]);
	lcd_write_string_4d(words0);
     e6c:	ce 01       	movw	r24, r28
     e6e:	0e 94 e4 04 	call	0x9c8	; 0x9c8 <lcd_write_string_4d>
	//wordLen = strlen((char *)words000[i][0]);
	wordLen = strlen((char *)words0);
     e72:	fe 01       	movw	r30, r28
     e74:	01 90       	ld	r0, Z+
     e76:	00 20       	and	r0, r0
     e78:	e9 f7       	brne	.-6      	; 0xe74 <lcd_dispWords+0x76>
     e7a:	31 97       	sbiw	r30, 0x01	; 1
     e7c:	ec 1b       	sub	r30, r28
     e7e:	fd 0b       	sbc	r31, r29
	for (n=0; n<(LCD_MAXCOL-wordLen); n++)
     e80:	00 e1       	ldi	r16, 0x10	; 16
     e82:	10 e0       	ldi	r17, 0x00	; 0
     e84:	0e 1b       	sub	r16, r30
     e86:	11 09       	sbc	r17, r1
     e88:	10 16       	cp	r1, r16
     e8a:	11 06       	cpc	r1, r17
     e8c:	54 f4       	brge	.+20     	; 0xea2 <lcd_dispWords+0xa4>
     e8e:	c0 e0       	ldi	r28, 0x00	; 0
	lcd_write_character_4d((uint8_t)0x20);
     e90:	80 e2       	ldi	r24, 0x20	; 32
     e92:	0e 94 d7 04 	call	0x9ae	; 0x9ae <lcd_write_character_4d>
	}
	//lcd_write_string_4d(words000[i][0]);
	lcd_write_string_4d(words0);
	//wordLen = strlen((char *)words000[i][0]);
	wordLen = strlen((char *)words0);
	for (n=0; n<(LCD_MAXCOL-wordLen); n++)
     e96:	cf 5f       	subi	r28, 0xFF	; 255
     e98:	2c 2f       	mov	r18, r28
     e9a:	30 e0       	ldi	r19, 0x00	; 0
     e9c:	20 17       	cp	r18, r16
     e9e:	31 07       	cpc	r19, r17
     ea0:	bc f3       	brlt	.-18     	; 0xe90 <lcd_dispWords+0x92>
	lcd_write_character_4d((uint8_t)0x20);
	//lcd_write_string_4d(program_author);

	// set cursor to start of second line
	lcd_write_instruction_4d(lcd_SetCursor | lcd_LineTwo);
     ea2:	80 ec       	ldi	r24, 0xC0	; 192
     ea4:	0e 94 13 05 	call	0xa26	; 0xa26 <lcd_write_instruction_4d>
     ea8:	34 e1       	ldi	r19, 0x14	; 20
     eaa:	3a 95       	dec	r19
     eac:	f1 f7       	brne	.-4      	; 0xeaa <lcd_dispWords+0xac>
	_delay_us(DELAY_INST);                                  // 40 uS delay (min)

	// display the second line of information
	//lcd_write_string_4d(words000[i][1]);
	lcd_write_string_4d(words1);
     eae:	c7 01       	movw	r24, r14
     eb0:	0e 94 e4 04 	call	0x9c8	; 0x9c8 <lcd_write_string_4d>
	//utoa(sizeof(words000[0]), str, 10); //32
	//utoa(sizeof(words), str, 10); //?
	//utoa(strlen(words000[i][0]), str, 10);
	//lcd_write_string_4d(str);
	//wordLen = strlen((char *)words000[i][1]);
	wordLen = strlen((char *)words1);
     eb4:	f7 01       	movw	r30, r14
     eb6:	01 90       	ld	r0, Z+
     eb8:	00 20       	and	r0, r0
     eba:	e9 f7       	brne	.-6      	; 0xeb6 <lcd_dispWords+0xb8>
     ebc:	31 97       	sbiw	r30, 0x01	; 1
     ebe:	ee 19       	sub	r30, r14
     ec0:	ff 09       	sbc	r31, r15
	for (n=0; n<(LCD_MAXCOL-wordLen); n++)
     ec2:	00 e1       	ldi	r16, 0x10	; 16
     ec4:	10 e0       	ldi	r17, 0x00	; 0
     ec6:	0e 1b       	sub	r16, r30
     ec8:	11 09       	sbc	r17, r1
     eca:	10 16       	cp	r1, r16
     ecc:	11 06       	cpc	r1, r17
     ece:	54 f4       	brge	.+20     	; 0xee4 <lcd_dispWords+0xe6>
     ed0:	c0 e0       	ldi	r28, 0x00	; 0
	lcd_write_character_4d((uint8_t)0x20);
     ed2:	80 e2       	ldi	r24, 0x20	; 32
     ed4:	0e 94 d7 04 	call	0x9ae	; 0x9ae <lcd_write_character_4d>
	//utoa(sizeof(words), str, 10); //?
	//utoa(strlen(words000[i][0]), str, 10);
	//lcd_write_string_4d(str);
	//wordLen = strlen((char *)words000[i][1]);
	wordLen = strlen((char *)words1);
	for (n=0; n<(LCD_MAXCOL-wordLen); n++)
     ed8:	cf 5f       	subi	r28, 0xFF	; 255
     eda:	8c 2f       	mov	r24, r28
     edc:	90 e0       	ldi	r25, 0x00	; 0
     ede:	80 17       	cp	r24, r16
     ee0:	91 07       	cpc	r25, r17
     ee2:	bc f3       	brlt	.-18     	; 0xed2 <lcd_dispWords+0xd4>
	lcd_write_character_4d((uint8_t)0x20);
	//lcd_write_string_4d(program_date);

	//_delay_ms(2000);

}//lcd_dispWords
     ee4:	df 91       	pop	r29
     ee6:	cf 91       	pop	r28
     ee8:	1f 91       	pop	r17
     eea:	0f 91       	pop	r16
     eec:	ff 90       	pop	r15
     eee:	ef 90       	pop	r14
     ef0:	08 95       	ret

00000ef2 <main>:
//------------------------------------
int main()
{
	// configure MCU IO pins
	// implemented at "config.c"
    config();
     ef2:	0e 94 89 00 	call	0x112	; 0x112 <config>
 
	// setup ISR
	// implemented at "intrpt.c"
    initINT();
     ef6:	0e 94 e2 03 	call	0x7c4	; 0x7c4 <initINT>

	// setup ISR
	// implemented at "I2C.c"
	I2C_Init();
     efa:	0e 94 16 03 	call	0x62c	; 0x62c <I2C_Init>
	//LCD_dispReadyAndSleep(); 

    //lcd_dispRealClock();
	//lcd_dispProgInfo(); //LCD display program info
    // Use the Power Down sleep mode
    set_sleep_mode(SLEEP_MODE_PWR_DOWN);
     efe:	83 b7       	in	r24, 0x33	; 51
     f00:	81 7f       	andi	r24, 0xF1	; 241
     f02:	84 60       	ori	r24, 0x04	; 4
     f04:	83 bf       	out	0x33, r24	; 51
	
	//DS1307_setSQW(); //enable 1hz square wave 

	//--- To use LCD while testing any of functions
	// make it commented when in production mode
	prepareWakeUpandLCDHome();
     f06:	0e 94 ac 07 	call	0xf58	; 0xf58 <prepareWakeUpandLCDHome>
	// endless loop
    while(1)
    {
      // go to sleep and wait for interrupt...
      //sleep_mode();
	  LCD_WriteTimeDateTempHumid();
     f0a:	0e 94 f5 02 	call	0x5ea	; 0x5ea <LCD_WriteTimeDateTempHumid>
	#else
		//round up by default
		__ticks_dc = (uint32_t)(ceil(fabs(__tmp)));
	#endif

	__builtin_avr_delay_cycles(__ticks_dc);
     f0e:	2f e3       	ldi	r18, 0x3F	; 63
     f10:	8d e0       	ldi	r24, 0x0D	; 13
     f12:	93 e0       	ldi	r25, 0x03	; 3
     f14:	21 50       	subi	r18, 0x01	; 1
     f16:	80 40       	sbci	r24, 0x00	; 0
     f18:	90 40       	sbci	r25, 0x00	; 0
     f1a:	e1 f7       	brne	.-8      	; 0xf14 <main+0x22>
     f1c:	00 c0       	rjmp	.+0      	; 0xf1e <main+0x2c>
     f1e:	00 00       	nop
     f20:	f4 cf       	rjmp	.-24     	; 0xf0a <main+0x18>

00000f22 <makePDasOutput>:
//by calling makePDasInput(). (added by Insoo: Jul 12, 2017)
void makePDasOutput()
{
	// configure the microprocessor pins for the data lines
	// 4 data lines - output
	lcd_D7_ddr |= _BV(lcd_D7_bit);
     f22:	22 9a       	sbi	0x04, 2	; 4
	lcd_D6_ddr |= _BV(lcd_D6_bit);
     f24:	23 9a       	sbi	0x04, 3	; 4
	lcd_D5_ddr |= _BV(lcd_D5_bit);
     f26:	24 9a       	sbi	0x04, 4	; 4
	lcd_D4_ddr |= _BV(lcd_D4_bit);
     f28:	25 9a       	sbi	0x04, 5	; 4

	// LCD backlight cathode pin (K) - Output
	lcd_Backlight_ddr |= _BV(lcd_Backlight_bit);
     f2a:	21 9a       	sbi	0x04, 1	; 4

	// LCD VSS pin (Power Supply) - Output
	lcd_VDD_ddr |= _BV(lcd_VDD_bit);
     f2c:	51 9a       	sbi	0x0a, 1	; 10
	//turn on LCD power
	lcd_VDD_port |= _BV(lcd_VDD_bit);
     f2e:	59 9a       	sbi	0x0b, 1	; 11
     f30:	83 ec       	ldi	r24, 0xC3	; 195
     f32:	99 e0       	ldi	r25, 0x09	; 9
     f34:	01 97       	sbiw	r24, 0x01	; 1
     f36:	f1 f7       	brne	.-4      	; 0xf34 <makePDasOutput+0x12>
     f38:	00 c0       	rjmp	.+0      	; 0xf3a <makePDasOutput+0x18>
     f3a:	00 00       	nop
	_delay_ms(10);

	// DS1307 Vcc pin (Power Supply) - output
	DS1307_VCC_ddr |= _BV(DS1307_VCC_bit);
     f3c:	20 9a       	sbi	0x04, 0	; 4

	//turn on DS1307 power
	DS1307_VCC_port |= _BV(DS1307_VCC_bit);
     f3e:	28 9a       	sbi	0x05, 0	; 5
     f40:	83 ec       	ldi	r24, 0xC3	; 195
     f42:	99 e0       	ldi	r25, 0x09	; 9
     f44:	01 97       	sbiw	r24, 0x01	; 1
     f46:	f1 f7       	brne	.-4      	; 0xf44 <makePDasOutput+0x22>
     f48:	00 c0       	rjmp	.+0      	; 0xf4a <makePDasOutput+0x28>
     f4a:	00 00       	nop
	_delay_ms(10);

	// DHT11 (temp & humid sensor) VCC pin (Power Supply) - Output
	//added by Insoo (Jul 14, 2017)
	DHT_VCC_ddr &= ~_BV(DHT_VCC_bit);
     f4c:	55 98       	cbi	0x0a, 5	; 10
	//turn on DHT11 chip power
	DHT_VCC_port |= _BV(DHT_VCC_bit);
     f4e:	5d 9a       	sbi	0x0b, 5	; 11
	//Tactile switch - Input
	//tactile_Switch_ddr |= _BV(tactile_Switch_bit);

	// configure the microprocessor pins for the control lines
	// E line - output
	lcd_E_ddr |= _BV(lcd_E_bit);
     f50:	54 9a       	sbi	0x0a, 4	; 10
	// RS line - output
	lcd_RS_ddr |= _BV(lcd_RS_bit);
     f52:	53 9a       	sbi	0x0a, 3	; 10
	// turn off RS
	lcd_RS_port &= ~_BV(lcd_RS_bit);
     f54:	5b 98       	cbi	0x0b, 3	; 11
     f56:	08 95       	ret

00000f58 <prepareWakeUpandLCDHome>:
 #include <util/delay.h>

//----------------------------------
void prepareWakeUpandLCDHome()
{
	makePDasOutput();
     f58:	0e 94 91 07 	call	0xf22	; 0xf22 <makePDasOutput>
	lcd_init_4d();
     f5c:	0e 94 20 05 	call	0xa40	; 0xa40 <lcd_init_4d>
     f60:	08 95       	ret

00000f62 <makePDasInput>:
void makePDasInput()
{

	// turn off four data lines
	// following four lines added by Insoo on Jul 15, 2017
	lcd_D7_port &= ~_BV(lcd_D7_bit);
     f62:	2a 98       	cbi	0x05, 2	; 5
	lcd_D6_port &= ~_BV(lcd_D6_bit);
     f64:	2b 98       	cbi	0x05, 3	; 5
	lcd_D5_port &= ~_BV(lcd_D5_bit);
     f66:	2c 98       	cbi	0x05, 4	; 5
	lcd_D4_port &= ~_BV(lcd_D4_bit);
     f68:	2d 98       	cbi	0x05, 5	; 5

	// configure the microprocessor pins for the data lines
	// 4 data lines - output, but make it input
	lcd_D7_ddr &= ~_BV(lcd_D7_bit);
     f6a:	22 98       	cbi	0x04, 2	; 4
	lcd_D6_ddr &= ~_BV(lcd_D6_bit);
     f6c:	23 98       	cbi	0x04, 3	; 4
	lcd_D5_ddr &= ~_BV(lcd_D5_bit);
     f6e:	24 98       	cbi	0x04, 4	; 4
	lcd_D4_ddr &= ~_BV(lcd_D4_bit);
     f70:	25 98       	cbi	0x04, 5	; 4

	// turn off backlight cathode(GND)
	// following one line added by Insoo on Jul 15, 2017
	lcd_Backlight_port = _BV(lcd_Backlight_bit);
     f72:	82 e0       	ldi	r24, 0x02	; 2
     f74:	85 b9       	out	0x05, r24	; 5
	// LCD backlight cathode pin (K) - output, but make it input
	lcd_Backlight_ddr &= ~_BV(lcd_Backlight_bit);
     f76:	21 98       	cbi	0x04, 1	; 4

	// turn off DS1307
	DS1307_VCC_port &= ~_BV(DS1307_VCC_bit);
     f78:	28 98       	cbi	0x05, 0	; 5
	// then, DS1307 Vcc pin (Power Supply) - output, but make it input
	DS1307_VCC_ddr &= ~_BV(DS1307_VCC_bit);
     f7a:	20 98       	cbi	0x04, 0	; 4

	// DHT11 (temp & humid sensor) signal pin - Output/Input
	//turn off and
	DHT_SIG_port &= ~_BV(DHT_SIG_bit);
     f7c:	2f 98       	cbi	0x05, 7	; 5
	//make it input
	DHT_SIG_ddr &= ~_BV(DHT_SIG_bit);
     f7e:	27 98       	cbi	0x04, 7	; 4
	DHT_SIG_port &= ~_BV(DHT_SIG_bit);
     f80:	2f 98       	cbi	0x05, 7	; 5

	//turn off DHT11 chip power
	DHT_VCC_port &= ~_BV(DHT_VCC_bit);
     f82:	5d 98       	cbi	0x0b, 5	; 11
	//make DHT_VCC as input, added by Insoo (Jul 14, 2017)
	DHT_VCC_ddr &= ~_BV(DHT_VCC_bit);
     f84:	55 98       	cbi	0x0a, 5	; 10
	//Tactile switch - Input
	//tactile_Switch_ddr &= ~_BV(tactile_Switch_bit);

	// turn off Enable pin
	// following one line added by Insoo on Jul 15, 2017
	lcd_E_port &= ~_BV(lcd_E_bit);
     f86:	5c 98       	cbi	0x0b, 4	; 11
	// configure the microprocessor pins for the control lines
	// E line - output, but make it input
	lcd_E_ddr &= ~_BV(lcd_E_bit);
     f88:	54 98       	cbi	0x0a, 4	; 10
	 
	// turn off RS
	lcd_RS_port &= ~_BV(lcd_RS_bit);
     f8a:	5b 98       	cbi	0x0b, 3	; 11
	// RS line - output, but make it input
	lcd_RS_ddr &= ~_BV(lcd_RS_bit);
     f8c:	53 98       	cbi	0x0a, 3	; 10

	// turn off LCD power
	lcd_VDD_port &= ~_BV(lcd_VDD_bit);
     f8e:	59 98       	cbi	0x0b, 1	; 11
	// then, LCD VSS pin (Power Supply) - output, but make it input
	lcd_VDD_ddr &= ~_BV(lcd_VDD_bit);
     f90:	51 98       	cbi	0x0a, 1	; 10
     f92:	08 95       	ret

00000f94 <buzzerSoundOn>:
#include "defines.h"
#include <util/delay.h>

 void buzzerSoundOn()
 {
	BUZZER_port |= _BV(BUZZER_bit);
     f94:	58 9a       	sbi	0x0b, 0	; 11
     f96:	87 ea       	ldi	r24, 0xA7	; 167
     f98:	91 e6       	ldi	r25, 0x61	; 97
     f9a:	01 97       	sbiw	r24, 0x01	; 1
     f9c:	f1 f7       	brne	.-4      	; 0xf9a <buzzerSoundOn+0x6>
     f9e:	00 c0       	rjmp	.+0      	; 0xfa0 <buzzerSoundOn+0xc>
     fa0:	00 00       	nop
     fa2:	08 95       	ret

00000fa4 <buzzerSoundOff>:
	_delay_ms(100);
 }//buzzerSoundOn

 void buzzerSoundOff()
 {
	 BUZZER_port &= ~_BV(BUZZER_bit);
     fa4:	58 98       	cbi	0x0b, 0	; 11
     fa6:	2f e3       	ldi	r18, 0x3F	; 63
     fa8:	8d e0       	ldi	r24, 0x0D	; 13
     faa:	93 e0       	ldi	r25, 0x03	; 3
     fac:	21 50       	subi	r18, 0x01	; 1
     fae:	80 40       	sbci	r24, 0x00	; 0
     fb0:	90 40       	sbci	r25, 0x00	; 0
     fb2:	e1 f7       	brne	.-8      	; 0xfac <buzzerSoundOff+0x8>
     fb4:	00 c0       	rjmp	.+0      	; 0xfb6 <buzzerSoundOff+0x12>
     fb6:	00 00       	nop
     fb8:	08 95       	ret

00000fba <buzzerBeepBeep>:
	 _delay_ms(1000);
 }//buzzerSoundOff

 void buzzerBeepBeep()
 {
	buzzerSoundOn();
     fba:	0e 94 ca 07 	call	0xf94	; 0xf94 <buzzerSoundOn>
	buzzerSoundOff();
     fbe:	0e 94 d2 07 	call	0xfa4	; 0xfa4 <buzzerSoundOff>
     fc2:	08 95       	ret

00000fc4 <tinudht_read>:
#define TINUDHT_RCV_DELAY 10
#define TINUDHT_RCV_LENGTH 2

// ----------------------------------------------------------------------------

uint8_t tinudht_read(TinuDHT *ptinudht, uint8_t dht_pin) {
     fc4:	ef 92       	push	r14
     fc6:	ff 92       	push	r15
     fc8:	0f 93       	push	r16
     fca:	1f 93       	push	r17
     fcc:	cf 93       	push	r28
     fce:	df 93       	push	r29
     fd0:	00 d0       	rcall	.+0      	; 0xfd2 <tinudht_read+0xe>
     fd2:	00 d0       	rcall	.+0      	; 0xfd4 <tinudht_read+0x10>
     fd4:	1f 92       	push	r1
     fd6:	cd b7       	in	r28, 0x3d	; 61
     fd8:	de b7       	in	r29, 0x3e	; 62
     fda:	7c 01       	movw	r14, r24
	
	// Buffer to received data
	uint8_t data[5];
	// Empty the buffer
	data[0] = data[1] = data[2] = data[3] = data[4] = 0;
     fdc:	1d 82       	std	Y+5, r1	; 0x05
     fde:	1c 82       	std	Y+4, r1	; 0x04
     fe0:	1b 82       	std	Y+3, r1	; 0x03
     fe2:	1a 82       	std	Y+2, r1	; 0x02
     fe4:	19 82       	std	Y+1, r1	; 0x01
//	for (uint8_t i=0; i< 5; i++) data[i] = 0;	// Another way to empty the data buffer.

	// Send request
	DDRB |= (1 << dht_pin);	// Set port as output
     fe6:	84 b1       	in	r24, 0x04	; 4
     fe8:	41 e0       	ldi	r20, 0x01	; 1
     fea:	50 e0       	ldi	r21, 0x00	; 0
     fec:	06 2e       	mov	r0, r22
     fee:	02 c0       	rjmp	.+4      	; 0xff4 <tinudht_read+0x30>
     ff0:	44 0f       	add	r20, r20
     ff2:	55 1f       	adc	r21, r21
     ff4:	0a 94       	dec	r0
     ff6:	e2 f7       	brpl	.-8      	; 0xff0 <tinudht_read+0x2c>
     ff8:	84 2b       	or	r24, r20
     ffa:	84 b9       	out	0x04, r24	; 4
	PORTB &= ~(1 << dht_pin);	// Set to 0
     ffc:	95 b1       	in	r25, 0x05	; 5
     ffe:	24 2f       	mov	r18, r20
    1000:	20 95       	com	r18
    1002:	92 23       	and	r25, r18
    1004:	95 b9       	out	0x05, r25	; 5
    1006:	83 e9       	ldi	r24, 0x93	; 147
    1008:	91 e1       	ldi	r25, 0x11	; 17
    100a:	01 97       	sbiw	r24, 0x01	; 1
    100c:	f1 f7       	brne	.-4      	; 0x100a <tinudht_read+0x46>
    100e:	00 c0       	rjmp	.+0      	; 0x1010 <tinudht_read+0x4c>
    1010:	00 00       	nop
	_delay_ms(18);	// Wait 18 ms
	PORTB |= (1 << dht_pin);	// Set to 1
    1012:	95 b1       	in	r25, 0x05	; 5
    1014:	94 2b       	or	r25, r20
    1016:	95 b9       	out	0x05, r25	; 5
	#else
		//round up by default
		__ticks_dc = (uint32_t)(ceil(fabs(__tmp)));
	#endif

	__builtin_avr_delay_cycles(__ticks_dc);
    1018:	9d e0       	ldi	r25, 0x0D	; 13
    101a:	9a 95       	dec	r25
    101c:	f1 f7       	brne	.-4      	; 0x101a <tinudht_read+0x56>
    101e:	00 00       	nop
	_delay_us(40);	// Wait 40 us

	// Receive response
	DDRB &= ~(1 << dht_pin);	// Set port as input
    1020:	84 b1       	in	r24, 0x04	; 4
    1022:	82 23       	and	r24, r18
    1024:	84 b9       	out	0x04, r24	; 4

	uint8_t timeout;

	// Acknowledge
	timeout = TINUDHT_RCV_TIMEOUT;
	while(bit_is_clear(PINB, dht_pin))	// Wait for 1
    1026:	80 e0       	ldi	r24, 0x00	; 0
    1028:	03 c0       	rjmp	.+6      	; 0x1030 <tinudht_read+0x6c>
    102a:	81 50       	subi	r24, 0x01	; 1
		if (timeout-- == 0)
    102c:	09 f4       	brne	.+2      	; 0x1030 <tinudht_read+0x6c>
    102e:	5a c0       	rjmp	.+180    	; 0x10e4 <tinudht_read+0x120>

	uint8_t timeout;

	// Acknowledge
	timeout = TINUDHT_RCV_TIMEOUT;
	while(bit_is_clear(PINB, dht_pin))	// Wait for 1
    1030:	23 b1       	in	r18, 0x03	; 3
    1032:	30 e0       	ldi	r19, 0x00	; 0
    1034:	24 23       	and	r18, r20
    1036:	35 23       	and	r19, r21
    1038:	23 2b       	or	r18, r19
    103a:	b9 f3       	breq	.-18     	; 0x102a <tinudht_read+0x66>
    103c:	5d c0       	rjmp	.+186    	; 0x10f8 <tinudht_read+0x134>
    103e:	21 50       	subi	r18, 0x01	; 1
		if (timeout-- == 0)
			return TINUDHT_ERROR_TIMEOUT;
	
	timeout = TINUDHT_RCV_TIMEOUT;
	while(bit_is_set(PINB, dht_pin))	// Wait for 0
		if (timeout-- == 0)
    1040:	11 f4       	brne	.+4      	; 0x1046 <tinudht_read+0x82>
    1042:	52 c0       	rjmp	.+164    	; 0x10e8 <tinudht_read+0x124>
	while(bit_is_clear(PINB, dht_pin))	// Wait for 1
		if (timeout-- == 0)
			return TINUDHT_ERROR_TIMEOUT;
	
	timeout = TINUDHT_RCV_TIMEOUT;
	while(bit_is_set(PINB, dht_pin))	// Wait for 0
    1044:	2f ef       	ldi	r18, 0xFF	; 255
    1046:	83 b1       	in	r24, 0x03	; 3
    1048:	90 e0       	ldi	r25, 0x00	; 0
    104a:	84 23       	and	r24, r20
    104c:	95 23       	and	r25, r21
    104e:	89 2b       	or	r24, r25
    1050:	b1 f7       	brne	.-20     	; 0x103e <tinudht_read+0x7a>
    1052:	88 e2       	ldi	r24, 0x28	; 40
    1054:	10 e0       	ldi	r17, 0x00	; 0
    1056:	a7 e0       	ldi	r26, 0x07	; 7
    1058:	03 c0       	rjmp	.+6      	; 0x1060 <tinudht_read+0x9c>
    105a:	91 50       	subi	r25, 0x01	; 1
	for (uint8_t i = 0; i < 40; i++)
	{
		// Wait for start
		timeout = TINUDHT_RCV_TIMEOUT;
		while(bit_is_clear(PINB, dht_pin))	// Wait for 1
			if (timeout-- == 0)
    105c:	31 f4       	brne	.+12     	; 0x106a <tinudht_read+0xa6>
    105e:	46 c0       	rjmp	.+140    	; 0x10ec <tinudht_read+0x128>
	while(bit_is_clear(PINB, dht_pin))	// Wait for 1
		if (timeout-- == 0)
			return TINUDHT_ERROR_TIMEOUT;
	
	timeout = TINUDHT_RCV_TIMEOUT;
	while(bit_is_set(PINB, dht_pin))	// Wait for 0
    1060:	b0 e0       	ldi	r27, 0x00	; 0
			_delay_us(TINUDHT_RCV_DELAY);
			if (len++ == TINUDHT_RCV_TIMEOUT)
				return TINUDHT_ERROR_TIMEOUT;
			}

		if (len >= TINUDHT_RCV_LENGTH) data[byte_index] |= (1 << bit_index);
    1062:	61 e0       	ldi	r22, 0x01	; 1
    1064:	70 e0       	ldi	r23, 0x00	; 0
		// NOTE: The values of TINUDHT_RCV_DELAY and TINUDHT_RCV_LENGTH
		//       may need to be adjusted if the F_CPU changes.
		
		if (bit_index == 0)	// next byte?
		{
			bit_index = 7;	// restart at MSB
    1066:	07 e0       	ldi	r16, 0x07	; 7
	while(bit_is_clear(PINB, dht_pin))	// Wait for 1
		if (timeout-- == 0)
			return TINUDHT_ERROR_TIMEOUT;
	
	timeout = TINUDHT_RCV_TIMEOUT;
	while(bit_is_set(PINB, dht_pin))	// Wait for 0
    1068:	9b 2f       	mov	r25, r27
	// READ OUTPUT - 40 BITS => 5 BYTES or TIMEOUT
	for (uint8_t i = 0; i < 40; i++)
	{
		// Wait for start
		timeout = TINUDHT_RCV_TIMEOUT;
		while(bit_is_clear(PINB, dht_pin))	// Wait for 1
    106a:	23 b1       	in	r18, 0x03	; 3
    106c:	30 e0       	ldi	r19, 0x00	; 0
    106e:	24 23       	and	r18, r20
    1070:	35 23       	and	r19, r21
    1072:	23 2b       	or	r18, r19
    1074:	91 f3       	breq	.-28     	; 0x105a <tinudht_read+0x96>
    1076:	9b 2f       	mov	r25, r27
    1078:	06 c0       	rjmp	.+12     	; 0x1086 <tinudht_read+0xc2>
    107a:	e3 e0       	ldi	r30, 0x03	; 3
    107c:	ea 95       	dec	r30
    107e:	f1 f7       	brne	.-4      	; 0x107c <tinudht_read+0xb8>
    1080:	00 00       	nop

		// Determine the bit value
		uint8_t len = 0;
		while(bit_is_set(PINB, dht_pin)) {	// Wait for 0
			_delay_us(TINUDHT_RCV_DELAY);
			if (len++ == TINUDHT_RCV_TIMEOUT)
    1082:	9f 5f       	subi	r25, 0xFF	; 255
    1084:	a9 f1       	breq	.+106    	; 0x10f0 <tinudht_read+0x12c>
			if (timeout-- == 0)
				return TINUDHT_ERROR_TIMEOUT;

		// Determine the bit value
		uint8_t len = 0;
		while(bit_is_set(PINB, dht_pin)) {	// Wait for 0
    1086:	23 b1       	in	r18, 0x03	; 3
    1088:	30 e0       	ldi	r19, 0x00	; 0
    108a:	24 23       	and	r18, r20
    108c:	35 23       	and	r19, r21
    108e:	23 2b       	or	r18, r19
    1090:	a1 f7       	brne	.-24     	; 0x107a <tinudht_read+0xb6>
			_delay_us(TINUDHT_RCV_DELAY);
			if (len++ == TINUDHT_RCV_TIMEOUT)
				return TINUDHT_ERROR_TIMEOUT;
			}

		if (len >= TINUDHT_RCV_LENGTH) data[byte_index] |= (1 << bit_index);
    1092:	92 30       	cpi	r25, 0x02	; 2
    1094:	80 f0       	brcs	.+32     	; 0x10b6 <tinudht_read+0xf2>
    1096:	e1 e0       	ldi	r30, 0x01	; 1
    1098:	f0 e0       	ldi	r31, 0x00	; 0
    109a:	ec 0f       	add	r30, r28
    109c:	fd 1f       	adc	r31, r29
    109e:	e1 0f       	add	r30, r17
    10a0:	f1 1d       	adc	r31, r1
    10a2:	90 81       	ld	r25, Z
    10a4:	9b 01       	movw	r18, r22
    10a6:	0a 2e       	mov	r0, r26
    10a8:	02 c0       	rjmp	.+4      	; 0x10ae <tinudht_read+0xea>
    10aa:	22 0f       	add	r18, r18
    10ac:	33 1f       	adc	r19, r19
    10ae:	0a 94       	dec	r0
    10b0:	e2 f7       	brpl	.-8      	; 0x10aa <tinudht_read+0xe6>
    10b2:	29 2b       	or	r18, r25
    10b4:	20 83       	st	Z, r18
		// delay =  9..29us, len = 2
		
		// NOTE: The values of TINUDHT_RCV_DELAY and TINUDHT_RCV_LENGTH
		//       may need to be adjusted if the F_CPU changes.
		
		if (bit_index == 0)	// next byte?
    10b6:	a1 11       	cpse	r26, r1
    10b8:	03 c0       	rjmp	.+6      	; 0x10c0 <tinudht_read+0xfc>
		{
			bit_index = 7;	// restart at MSB
			byte_index++;	// next byte!
    10ba:	1f 5f       	subi	r17, 0xFF	; 255
		// NOTE: The values of TINUDHT_RCV_DELAY and TINUDHT_RCV_LENGTH
		//       may need to be adjusted if the F_CPU changes.
		
		if (bit_index == 0)	// next byte?
		{
			bit_index = 7;	// restart at MSB
    10bc:	a0 2f       	mov	r26, r16
    10be:	01 c0       	rjmp	.+2      	; 0x10c2 <tinudht_read+0xfe>
			byte_index++;	// next byte!
		}
		else bit_index--;
    10c0:	a1 50       	subi	r26, 0x01	; 1
    10c2:	81 50       	subi	r24, 0x01	; 1
			return TINUDHT_ERROR_TIMEOUT;

	uint8_t bit_index = 7;
	uint8_t byte_index = 0;
	// READ OUTPUT - 40 BITS => 5 BYTES or TIMEOUT
	for (uint8_t i = 0; i < 40; i++)
    10c4:	89 f6       	brne	.-94     	; 0x1068 <tinudht_read+0xa4>
	// DEBUGGING_STRING("DT:");
	// DEBUGGING_NUMDECP(data[2]);
	// DEBUGGING_NUMDECP(data[3]);
	// DEBUGGING_STRING("\n\r");

	uint8_t checksum = data[0] + data[2];	// TODO: Fix this, does not work in border cases.
    10c6:	49 81       	ldd	r20, Y+1	; 0x01
    10c8:	2b 81       	ldd	r18, Y+3	; 0x03
    10ca:	92 2f       	mov	r25, r18
    10cc:	94 0f       	add	r25, r20
	if (data[4] != checksum) return TINUDHT_ERROR_CHECKSUM;
    10ce:	3d 81       	ldd	r19, Y+5	; 0x05
    10d0:	39 13       	cpse	r19, r25
    10d2:	10 c0       	rjmp	.+32     	; 0x10f4 <tinudht_read+0x130>
	// DEBUGGING_NUMDECP(data[4]);
	// DEBUGGING_NUMDECP(checksum);
	// DEBUGGING_STRING("\n\r");

	// On DHT11 data[1],data[3] are always zero so not used.
	ptinudht->humidity = data[0]; 
    10d4:	50 e0       	ldi	r21, 0x00	; 0
    10d6:	f7 01       	movw	r30, r14
    10d8:	51 83       	std	Z+1, r21	; 0x01
    10da:	40 83       	st	Z, r20
	ptinudht->temperature = data[2]; 
    10dc:	30 e0       	ldi	r19, 0x00	; 0
    10de:	33 83       	std	Z+3, r19	; 0x03
    10e0:	22 83       	std	Z+2, r18	; 0x02

	return TINUDHT_OK;
    10e2:	17 c0       	rjmp	.+46     	; 0x1112 <tinudht_read+0x14e>

	// Acknowledge
	timeout = TINUDHT_RCV_TIMEOUT;
	while(bit_is_clear(PINB, dht_pin))	// Wait for 1
		if (timeout-- == 0)
			return TINUDHT_ERROR_TIMEOUT;
    10e4:	8e ef       	ldi	r24, 0xFE	; 254
    10e6:	15 c0       	rjmp	.+42     	; 0x1112 <tinudht_read+0x14e>
	
	timeout = TINUDHT_RCV_TIMEOUT;
	while(bit_is_set(PINB, dht_pin))	// Wait for 0
		if (timeout-- == 0)
			return TINUDHT_ERROR_TIMEOUT;
    10e8:	8e ef       	ldi	r24, 0xFE	; 254
    10ea:	13 c0       	rjmp	.+38     	; 0x1112 <tinudht_read+0x14e>
	{
		// Wait for start
		timeout = TINUDHT_RCV_TIMEOUT;
		while(bit_is_clear(PINB, dht_pin))	// Wait for 1
			if (timeout-- == 0)
				return TINUDHT_ERROR_TIMEOUT;
    10ec:	8e ef       	ldi	r24, 0xFE	; 254
    10ee:	11 c0       	rjmp	.+34     	; 0x1112 <tinudht_read+0x14e>
		// Determine the bit value
		uint8_t len = 0;
		while(bit_is_set(PINB, dht_pin)) {	// Wait for 0
			_delay_us(TINUDHT_RCV_DELAY);
			if (len++ == TINUDHT_RCV_TIMEOUT)
				return TINUDHT_ERROR_TIMEOUT;
    10f0:	8e ef       	ldi	r24, 0xFE	; 254
    10f2:	0f c0       	rjmp	.+30     	; 0x1112 <tinudht_read+0x14e>
	// DEBUGGING_NUMDECP(data[2]);
	// DEBUGGING_NUMDECP(data[3]);
	// DEBUGGING_STRING("\n\r");

	uint8_t checksum = data[0] + data[2];	// TODO: Fix this, does not work in border cases.
	if (data[4] != checksum) return TINUDHT_ERROR_CHECKSUM;
    10f4:	8f ef       	ldi	r24, 0xFF	; 255
    10f6:	0d c0       	rjmp	.+26     	; 0x1112 <tinudht_read+0x14e>
	while(bit_is_clear(PINB, dht_pin))	// Wait for 1
		if (timeout-- == 0)
			return TINUDHT_ERROR_TIMEOUT;
	
	timeout = TINUDHT_RCV_TIMEOUT;
	while(bit_is_set(PINB, dht_pin))	// Wait for 0
    10f8:	83 b1       	in	r24, 0x03	; 3
    10fa:	90 e0       	ldi	r25, 0x00	; 0
    10fc:	02 c0       	rjmp	.+4      	; 0x1102 <tinudht_read+0x13e>
    10fe:	95 95       	asr	r25
    1100:	87 95       	ror	r24
    1102:	6a 95       	dec	r22
    1104:	e2 f7       	brpl	.-8      	; 0x10fe <tinudht_read+0x13a>
    1106:	80 fd       	sbrc	r24, 0
    1108:	9d cf       	rjmp	.-198    	; 0x1044 <tinudht_read+0x80>
    110a:	88 e2       	ldi	r24, 0x28	; 40
    110c:	10 e0       	ldi	r17, 0x00	; 0
    110e:	a7 e0       	ldi	r26, 0x07	; 7
    1110:	a7 cf       	rjmp	.-178    	; 0x1060 <tinudht_read+0x9c>
	// On DHT11 data[1],data[3] are always zero so not used.
	ptinudht->humidity = data[0]; 
	ptinudht->temperature = data[2]; 

	return TINUDHT_OK;
}//tinudht_read
    1112:	0f 90       	pop	r0
    1114:	0f 90       	pop	r0
    1116:	0f 90       	pop	r0
    1118:	0f 90       	pop	r0
    111a:	0f 90       	pop	r0
    111c:	df 91       	pop	r29
    111e:	cf 91       	pop	r28
    1120:	1f 91       	pop	r17
    1122:	0f 91       	pop	r16
    1124:	ff 90       	pop	r15
    1126:	ef 90       	pop	r14
    1128:	08 95       	ret

0000112a <countButton>:

    uint8_t val;
    uint8_t DONE=0;


    loopCnt=0;
    112a:	80 e0       	ldi	r24, 0x00	; 0
    prevLoop=0;
    112c:	30 e0       	ldi	r19, 0x00	; 0
#include <util/delay.h>

//-----------------------------------
void countButton()
{
    uint8_t menuCnt=0;
    112e:	20 e0       	ldi	r18, 0x00	; 0
        //  which is the unit delay of each while loop
        if (lapse > menuSelectInterval)
        {
			// if selected something, then get out of menu selection while loop
            if (menuCnt != 0)
                DONE = 1;
    1130:	61 e0       	ldi	r22, 0x01	; 1
    1132:	40 e0       	ldi	r20, 0x00	; 0
                ;
        }
        //if user has not chosen menuCnt > 0, and time lapse over 3sec,
        //forget about it, and call DONE as 2, and eventually go to sleep.
        if ((lapse > menuSelectInterval*2) && (menuCnt ==0))
            DONE = 2;
    1134:	52 e0       	ldi	r21, 0x02	; 2
    //  it will be accumulated as "menuCnt".
    //If the interval is over 1 sec, which is menuSelectInterval,
    //  then DONE is set to 1.
    while (!DONE)
    {
        loopCnt++;
    1136:	8f 5f       	subi	r24, 0xFF	; 255
        curLoop = loopCnt;
        lapse = curLoop - prevLoop;
    1138:	98 2f       	mov	r25, r24
    113a:	93 1b       	sub	r25, r19

        //menuSelectInterval is
        //  multiple of _delay_ms(halfSec/4)
        //  which is the unit delay of each while loop
        if (lapse > menuSelectInterval)
    113c:	93 30       	cpi	r25, 0x03	; 3
    113e:	18 f0       	brcs	.+6      	; 0x1146 <countButton+0x1c>
        {
			// if selected something, then get out of menu selection while loop
            if (menuCnt != 0)
    1140:	21 11       	cpse	r18, r1
    1142:	a0 c0       	rjmp	.+320    	; 0x1284 <countButton+0x15a>
    1144:	8a c0       	rjmp	.+276    	; 0x125a <countButton+0x130>
                //wait another 1 sec to get user's menuCnt
                ;
        }
        //if user has not chosen menuCnt > 0, and time lapse over 3sec,
        //forget about it, and call DONE as 2, and eventually go to sleep.
        if ((lapse > menuSelectInterval*2) && (menuCnt ==0))
    1146:	95 30       	cpi	r25, 0x05	; 5
    1148:	08 f4       	brcc	.+2      	; 0x114c <countButton+0x22>
    114a:	91 c0       	rjmp	.+290    	; 0x126e <countButton+0x144>
    114c:	22 23       	and	r18, r18
    114e:	09 f4       	brne	.+2      	; 0x1152 <countButton+0x28>
    1150:	81 c0       	rjmp	.+258    	; 0x1254 <countButton+0x12a>
    1152:	8d c0       	rjmp	.+282    	; 0x126e <countButton+0x144>
            DONE = 2;

      //check if tactile_Switch pressed to 0
      //AVR equivalent to Arduino digitalRead(tactile_Switch_bit)
      val = tactile_Switch_port & _BV(tactile_Switch_bit);
      if (val == 0)
    1154:	4e 99       	sbic	0x09, 6	; 9
    1156:	10 c0       	rjmp	.+32     	; 0x1178 <countButton+0x4e>
    1158:	94 2f       	mov	r25, r20
    115a:	05 c0       	rjmp	.+10     	; 0x1166 <countButton+0x3c>
                ;
        }
        //if user has not chosen menuCnt > 0, and time lapse over 3sec,
        //forget about it, and call DONE as 2, and eventually go to sleep.
        if ((lapse > menuSelectInterval*2) && (menuCnt ==0))
            DONE = 2;
    115c:	95 2f       	mov	r25, r21
    115e:	03 c0       	rjmp	.+6      	; 0x1166 <countButton+0x3c>

      //check if tactile_Switch pressed to 0
      //AVR equivalent to Arduino digitalRead(tactile_Switch_bit)
      val = tactile_Switch_port & _BV(tactile_Switch_bit);
      if (val == 0)
    1160:	94 2f       	mov	r25, r20
    1162:	01 c0       	rjmp	.+2      	; 0x1166 <countButton+0x3c>
        //  which is the unit delay of each while loop
        if (lapse > menuSelectInterval)
        {
			// if selected something, then get out of menu selection while loop
            if (menuCnt != 0)
                DONE = 1;
    1164:	96 2f       	mov	r25, r22
	#else
		//round up by default
		__ticks_dc = (uint32_t)(ceil(fabs(__tmp)));
	#endif

	__builtin_avr_delay_cycles(__ticks_dc);
    1166:	e3 e2       	ldi	r30, 0x23	; 35
    1168:	f4 ef       	ldi	r31, 0xF4	; 244
    116a:	31 97       	sbiw	r30, 0x01	; 1
    116c:	f1 f7       	brne	.-4      	; 0x116a <countButton+0x40>
    116e:	00 c0       	rjmp	.+0      	; 0x1170 <countButton+0x46>
    1170:	00 00       	nop
      val = tactile_Switch_port & _BV(tactile_Switch_bit);
      if (val == 0)
      {
        // for debounce
        _delay_ms(halfSec/2);
        menuCnt++;
    1172:	2f 5f       	subi	r18, 0xFF	; 255

        //Pressing the button, lap time calculation should be reset
        //to give 1 sec of time to choose menuCnt
        prevLoop = loopCnt;
    1174:	38 2f       	mov	r19, r24
    1176:	01 c0       	rjmp	.+2      	; 0x117a <countButton+0x50>
    1178:	94 2f       	mov	r25, r20
    117a:	e1 e1       	ldi	r30, 0x11	; 17
    117c:	fa e7       	ldi	r31, 0x7A	; 122
    117e:	31 97       	sbiw	r30, 0x01	; 1
    1180:	f1 f7       	brne	.-4      	; 0x117e <countButton+0x54>
    1182:	00 c0       	rjmp	.+0      	; 0x1184 <countButton+0x5a>
    1184:	00 00       	nop
    //Get menuCnt by counting the button press
    //If pressing the button within 1 second of interval between each press,
    //  it will be accumulated as "menuCnt".
    //If the interval is over 1 sec, which is menuSelectInterval,
    //  then DONE is set to 1.
    while (!DONE)
    1186:	99 23       	and	r25, r25
    1188:	b1 f2       	breq	.-84     	; 0x1136 <countButton+0xc>

    //menuCnt has been set within 3sec of a PCINT occurence
    //  then, play WDT count for a corresponding alarm period.
    if (DONE)
    {
        if (DONE == 2)
    118a:	92 30       	cpi	r25, 0x02	; 2
    118c:	11 f4       	brne	.+4      	; 0x1192 <countButton+0x68>
            menuCnt = prevMenuCnt;
    118e:	20 91 2d 04 	lds	r18, 0x042D	; 0x80042d <prevMenuCnt>
        //visual cue to notifiy user selected menuCnt
        //blinkLED(menuCnt);
        //_delay_ms(halfSec);
        //turnOnLCDpower();
        //lcd_dispON();
        prevMenuCnt = menuCnt;
    1192:	20 93 2d 04 	sts	0x042D, r18	; 0x80042d <prevMenuCnt>
        switch (menuCnt)
    1196:	23 30       	cpi	r18, 0x03	; 3
    1198:	91 f0       	breq	.+36     	; 0x11be <countButton+0x94>
    119a:	28 f4       	brcc	.+10     	; 0x11a6 <countButton+0x7c>
    119c:	21 30       	cpi	r18, 0x01	; 1
    119e:	49 f0       	breq	.+18     	; 0x11b2 <countButton+0x88>
    11a0:	22 30       	cpi	r18, 0x02	; 2
    11a2:	51 f0       	breq	.+20     	; 0x11b8 <countButton+0x8e>
    11a4:	2f c0       	rjmp	.+94     	; 0x1204 <countButton+0xda>
    11a6:	25 30       	cpi	r18, 0x05	; 5
    11a8:	39 f1       	breq	.+78     	; 0x11f8 <countButton+0xce>
    11aa:	e8 f0       	brcs	.+58     	; 0x11e6 <countButton+0xbc>
    11ac:	26 30       	cpi	r18, 0x06	; 6
    11ae:	39 f1       	breq	.+78     	; 0x11fe <countButton+0xd4>
    11b0:	29 c0       	rjmp	.+82     	; 0x1204 <countButton+0xda>
        {
            case 1:
                //lcd_dispWords();
                //lcd_dispRealClock();
				LCD_WriteTimeDateTempHumid();
    11b2:	0e 94 f5 02 	call	0x5ea	; 0x5ea <LCD_WriteTimeDateTempHumid>
				//LCD_WriteTimeDate();
				//LCD_WriteTimeDateTempHumid();
                //_delay_ms(2000);
				//getDHT();
                break;
    11b6:	39 c0       	rjmp	.+114    	; 0x122a <countButton+0x100>
            case 2:
				LCD_WriteTimeDate();
    11b8:	0e 94 e6 02 	call	0x5cc	; 0x5cc <LCD_WriteTimeDate>
                //_delay_ms(2000);
				//getDHT();
                //lcd_showDHT11();
                break;
    11bc:	36 c0       	rjmp	.+108    	; 0x122a <countButton+0x100>
            case 3:
				makePDasOutput();
    11be:	0e 94 91 07 	call	0xf22	; 0xf22 <makePDasOutput>
				lcd_init_4d();
    11c2:	0e 94 20 05 	call	0xa40	; 0xa40 <lcd_init_4d>
                turnOnLCDBacklight();
    11c6:	0e 94 79 05 	call	0xaf2	; 0xaf2 <turnOnLCDBacklight>
				LCD_WriteTimeDate();
    11ca:	0e 94 e6 02 	call	0x5cc	; 0x5cc <LCD_WriteTimeDate>
    11ce:	ff eb       	ldi	r31, 0xBF	; 191
    11d0:	27 e2       	ldi	r18, 0x27	; 39
    11d2:	89 e0       	ldi	r24, 0x09	; 9
    11d4:	f1 50       	subi	r31, 0x01	; 1
    11d6:	20 40       	sbci	r18, 0x00	; 0
    11d8:	80 40       	sbci	r24, 0x00	; 0
    11da:	e1 f7       	brne	.-8      	; 0x11d4 <countButton+0xaa>
    11dc:	00 c0       	rjmp	.+0      	; 0x11de <countButton+0xb4>
    11de:	00 00       	nop
				_delay_ms(3000);
                turnOffLCDBacklight();
    11e0:	0e 94 7b 05 	call	0xaf6	; 0xaf6 <turnOffLCDBacklight>
                break;
    11e4:	22 c0       	rjmp	.+68     	; 0x122a <countButton+0x100>
            case 4:
                //adjustClock();
                adjustMin();
    11e6:	0e 94 80 01 	call	0x300	; 0x300 <adjustMin>
                adjustHour();
    11ea:	0e 94 2a 01 	call	0x254	; 0x254 <adjustHour>
                adjustSec();
    11ee:	0e 94 d6 01 	call	0x3ac	; 0x3ac <adjustSec>
                lcd_dispRealClock();
    11f2:	0e 94 8c 05 	call	0xb18	; 0xb18 <lcd_dispRealClock>
                break;
    11f6:	19 c0       	rjmp	.+50     	; 0x122a <countButton+0x100>
            case 5:
                lcd_dispAccumulatedTime();
    11f8:	0e 94 79 06 	call	0xcf2	; 0xcf2 <lcd_dispAccumulatedTime>
                break;
    11fc:	16 c0       	rjmp	.+44     	; 0x122a <countButton+0x100>
            case 6:
                lcd_dispProgInfo();
    11fe:	0e 94 ce 06 	call	0xd9c	; 0xd9c <lcd_dispProgInfo>
                break;
    1202:	13 c0       	rjmp	.+38     	; 0x122a <countButton+0x100>
            default:
                //lcd_dispMenu();
				//LCD_WriteTimeDate();
				makePDasOutput();
    1204:	0e 94 91 07 	call	0xf22	; 0xf22 <makePDasOutput>
				lcd_init_4d();
    1208:	0e 94 20 05 	call	0xa40	; 0xa40 <lcd_init_4d>
				turnOnLCDBacklight();
    120c:	0e 94 79 05 	call	0xaf2	; 0xaf2 <turnOnLCDBacklight>
				LCD_WriteTimeDateTempHumid();
    1210:	0e 94 f5 02 	call	0x5ea	; 0x5ea <LCD_WriteTimeDateTempHumid>
    1214:	9f eb       	ldi	r25, 0xBF	; 191
    1216:	e7 e2       	ldi	r30, 0x27	; 39
    1218:	f9 e0       	ldi	r31, 0x09	; 9
    121a:	91 50       	subi	r25, 0x01	; 1
    121c:	e0 40       	sbci	r30, 0x00	; 0
    121e:	f0 40       	sbci	r31, 0x00	; 0
    1220:	e1 f7       	brne	.-8      	; 0x121a <countButton+0xf0>
    1222:	00 c0       	rjmp	.+0      	; 0x1224 <countButton+0xfa>
    1224:	00 00       	nop
				_delay_ms(3000);
				turnOffLCDBacklight();
    1226:	0e 94 7b 05 	call	0xaf6	; 0xaf6 <turnOffLCDBacklight>
    122a:	2f e3       	ldi	r18, 0x3F	; 63
    122c:	82 e4       	ldi	r24, 0x42	; 66
    122e:	9f e0       	ldi	r25, 0x0F	; 15
    1230:	21 50       	subi	r18, 0x01	; 1
    1232:	80 40       	sbci	r24, 0x00	; 0
    1234:	90 40       	sbci	r25, 0x00	; 0
    1236:	e1 f7       	brne	.-8      	; 0x1230 <countButton+0x106>
    1238:	00 c0       	rjmp	.+0      	; 0x123a <countButton+0x110>
    123a:	00 00       	nop
                //getDHT();
        }//switch (menuCnt)

        _delay_ms(5000); //show time of menu result

		makePDasInput(); //make LCD in deep power save mode
    123c:	0e 94 b1 07 	call	0xf62	; 0xf62 <makePDasInput>
		pwrOn = 0;
    1240:	10 92 21 04 	sts	0x0421, r1	; 0x800421 <pwrOn>
    1244:	08 95       	ret
    1246:	e1 e1       	ldi	r30, 0x11	; 17
    1248:	fa e7       	ldi	r31, 0x7A	; 122
    124a:	31 97       	sbiw	r30, 0x01	; 1
    124c:	f1 f7       	brne	.-4      	; 0x124a <countButton+0x120>
    124e:	00 c0       	rjmp	.+0      	; 0x1250 <countButton+0x126>
    1250:	00 00       	nop
    1252:	9d cf       	rjmp	.-198    	; 0x118e <countButton+0x64>
            DONE = 2;

      //check if tactile_Switch pressed to 0
      //AVR equivalent to Arduino digitalRead(tactile_Switch_bit)
      val = tactile_Switch_port & _BV(tactile_Switch_bit);
      if (val == 0)
    1254:	4e 99       	sbic	0x09, 6	; 9
    1256:	f7 cf       	rjmp	.-18     	; 0x1246 <countButton+0x11c>
    1258:	81 cf       	rjmp	.-254    	; 0x115c <countButton+0x32>
                //wait another 1 sec to get user's menuCnt
                ;
        }
        //if user has not chosen menuCnt > 0, and time lapse over 3sec,
        //forget about it, and call DONE as 2, and eventually go to sleep.
        if ((lapse > menuSelectInterval*2) && (menuCnt ==0))
    125a:	95 30       	cpi	r25, 0x05	; 5
    125c:	d8 f7       	brcc	.-10     	; 0x1254 <countButton+0x12a>
    125e:	7a cf       	rjmp	.-268    	; 0x1154 <countButton+0x2a>
    1260:	e1 e1       	ldi	r30, 0x11	; 17
    1262:	fa e7       	ldi	r31, 0x7A	; 122
    1264:	31 97       	sbiw	r30, 0x01	; 1
    1266:	f1 f7       	brne	.-4      	; 0x1264 <countButton+0x13a>
    1268:	00 c0       	rjmp	.+0      	; 0x126a <countButton+0x140>
    126a:	00 00       	nop
    126c:	64 cf       	rjmp	.-312    	; 0x1136 <countButton+0xc>
            DONE = 2;

      //check if tactile_Switch pressed to 0
      //AVR equivalent to Arduino digitalRead(tactile_Switch_bit)
      val = tactile_Switch_port & _BV(tactile_Switch_bit);
      if (val == 0)
    126e:	4e 99       	sbic	0x09, 6	; 9
    1270:	f7 cf       	rjmp	.-18     	; 0x1260 <countButton+0x136>
    1272:	76 cf       	rjmp	.-276    	; 0x1160 <countButton+0x36>
    1274:	81 e1       	ldi	r24, 0x11	; 17
    1276:	9a e7       	ldi	r25, 0x7A	; 122
    1278:	01 97       	sbiw	r24, 0x01	; 1
    127a:	f1 f7       	brne	.-4      	; 0x1278 <countButton+0x14e>
    127c:	00 c0       	rjmp	.+0      	; 0x127e <countButton+0x154>
    127e:	00 00       	nop
        //  which is the unit delay of each while loop
        if (lapse > menuSelectInterval)
        {
			// if selected something, then get out of menu selection while loop
            if (menuCnt != 0)
                DONE = 1;
    1280:	91 e0       	ldi	r25, 0x01	; 1
    1282:	83 cf       	rjmp	.-250    	; 0x118a <countButton+0x60>
            DONE = 2;

      //check if tactile_Switch pressed to 0
      //AVR equivalent to Arduino digitalRead(tactile_Switch_bit)
      val = tactile_Switch_port & _BV(tactile_Switch_bit);
      if (val == 0)
    1284:	4e 99       	sbic	0x09, 6	; 9
    1286:	f6 cf       	rjmp	.-20     	; 0x1274 <countButton+0x14a>
    1288:	6d cf       	rjmp	.-294    	; 0x1164 <countButton+0x3a>

0000128a <__divmodqi4>:
    128a:	87 fb       	bst	r24, 7
    128c:	08 2e       	mov	r0, r24
    128e:	06 26       	eor	r0, r22
    1290:	87 fd       	sbrc	r24, 7
    1292:	81 95       	neg	r24
    1294:	67 fd       	sbrc	r22, 7
    1296:	61 95       	neg	r22
    1298:	0e 94 59 09 	call	0x12b2	; 0x12b2 <__udivmodqi4>
    129c:	0e f4       	brtc	.+2      	; 0x12a0 <__divmodqi4_1>
    129e:	91 95       	neg	r25

000012a0 <__divmodqi4_1>:
    12a0:	07 fc       	sbrc	r0, 7
    12a2:	81 95       	neg	r24

000012a4 <__divmodqi4_exit>:
    12a4:	08 95       	ret

000012a6 <__tablejump2__>:
    12a6:	ee 0f       	add	r30, r30
    12a8:	ff 1f       	adc	r31, r31
    12aa:	05 90       	lpm	r0, Z+
    12ac:	f4 91       	lpm	r31, Z
    12ae:	e0 2d       	mov	r30, r0
    12b0:	09 94       	ijmp

000012b2 <__udivmodqi4>:
    12b2:	99 1b       	sub	r25, r25
    12b4:	79 e0       	ldi	r23, 0x09	; 9
    12b6:	04 c0       	rjmp	.+8      	; 0x12c0 <__udivmodqi4_ep>

000012b8 <__udivmodqi4_loop>:
    12b8:	99 1f       	adc	r25, r25
    12ba:	96 17       	cp	r25, r22
    12bc:	08 f0       	brcs	.+2      	; 0x12c0 <__udivmodqi4_ep>
    12be:	96 1b       	sub	r25, r22

000012c0 <__udivmodqi4_ep>:
    12c0:	88 1f       	adc	r24, r24
    12c2:	7a 95       	dec	r23
    12c4:	c9 f7       	brne	.-14     	; 0x12b8 <__udivmodqi4_loop>
    12c6:	80 95       	com	r24
    12c8:	08 95       	ret

000012ca <__itoa_ncheck>:
    12ca:	bb 27       	eor	r27, r27
    12cc:	4a 30       	cpi	r20, 0x0A	; 10
    12ce:	31 f4       	brne	.+12     	; 0x12dc <__itoa_ncheck+0x12>
    12d0:	99 23       	and	r25, r25
    12d2:	22 f4       	brpl	.+8      	; 0x12dc <__itoa_ncheck+0x12>
    12d4:	bd e2       	ldi	r27, 0x2D	; 45
    12d6:	90 95       	com	r25
    12d8:	81 95       	neg	r24
    12da:	9f 4f       	sbci	r25, 0xFF	; 255
    12dc:	0c 94 71 09 	jmp	0x12e2	; 0x12e2 <__utoa_common>

000012e0 <__utoa_ncheck>:
    12e0:	bb 27       	eor	r27, r27

000012e2 <__utoa_common>:
    12e2:	fb 01       	movw	r30, r22
    12e4:	55 27       	eor	r21, r21
    12e6:	aa 27       	eor	r26, r26
    12e8:	88 0f       	add	r24, r24
    12ea:	99 1f       	adc	r25, r25
    12ec:	aa 1f       	adc	r26, r26
    12ee:	a4 17       	cp	r26, r20
    12f0:	10 f0       	brcs	.+4      	; 0x12f6 <__utoa_common+0x14>
    12f2:	a4 1b       	sub	r26, r20
    12f4:	83 95       	inc	r24
    12f6:	50 51       	subi	r21, 0x10	; 16
    12f8:	b9 f7       	brne	.-18     	; 0x12e8 <__utoa_common+0x6>
    12fa:	a0 5d       	subi	r26, 0xD0	; 208
    12fc:	aa 33       	cpi	r26, 0x3A	; 58
    12fe:	08 f0       	brcs	.+2      	; 0x1302 <__utoa_common+0x20>
    1300:	a9 5d       	subi	r26, 0xD9	; 217
    1302:	a1 93       	st	Z+, r26
    1304:	00 97       	sbiw	r24, 0x00	; 0
    1306:	79 f7       	brne	.-34     	; 0x12e6 <__utoa_common+0x4>
    1308:	b1 11       	cpse	r27, r1
    130a:	b1 93       	st	Z+, r27
    130c:	11 92       	st	Z+, r1
    130e:	cb 01       	movw	r24, r22
    1310:	0c 94 8a 09 	jmp	0x1314	; 0x1314 <strrev>

00001314 <strrev>:
    1314:	dc 01       	movw	r26, r24
    1316:	fc 01       	movw	r30, r24
    1318:	67 2f       	mov	r22, r23
    131a:	71 91       	ld	r23, Z+
    131c:	77 23       	and	r23, r23
    131e:	e1 f7       	brne	.-8      	; 0x1318 <strrev+0x4>
    1320:	32 97       	sbiw	r30, 0x02	; 2
    1322:	04 c0       	rjmp	.+8      	; 0x132c <strrev+0x18>
    1324:	7c 91       	ld	r23, X
    1326:	6d 93       	st	X+, r22
    1328:	70 83       	st	Z, r23
    132a:	62 91       	ld	r22, -Z
    132c:	ae 17       	cp	r26, r30
    132e:	bf 07       	cpc	r27, r31
    1330:	c8 f3       	brcs	.-14     	; 0x1324 <strrev+0x10>
    1332:	08 95       	ret

00001334 <_exit>:
    1334:	f8 94       	cli

00001336 <__stop_program>:
    1336:	ff cf       	rjmp	.-2      	; 0x1336 <__stop_program>
