
LCD_RTC_DS1307_DHT11.elf:     file format elf32-avr

Sections:
Idx Name          Size      VMA       LMA       File off  Algn
  0 .data         0000036a  00800100  00001600  00001694  2**0
                  CONTENTS, ALLOC, LOAD, DATA
  1 .text         00001600  00000000  00000000  00000094  2**1
                  CONTENTS, ALLOC, LOAD, READONLY, CODE
  2 .bss          00000017  0080046a  0080046a  000019fe  2**0
                  ALLOC
  3 .comment      00000030  00000000  00000000  000019fe  2**0
                  CONTENTS, READONLY
  4 .note.gnu.avr.deviceinfo 00000040  00000000  00000000  00001a30  2**2
                  CONTENTS, READONLY
  5 .debug_aranges 00000360  00000000  00000000  00001a70  2**0
                  CONTENTS, READONLY, DEBUGGING
  6 .debug_info   00005495  00000000  00000000  00001dd0  2**0
                  CONTENTS, READONLY, DEBUGGING
  7 .debug_abbrev 00001b58  00000000  00000000  00007265  2**0
                  CONTENTS, READONLY, DEBUGGING
  8 .debug_line   00002552  00000000  00000000  00008dbd  2**0
                  CONTENTS, READONLY, DEBUGGING
  9 .debug_frame  0000080c  00000000  00000000  0000b310  2**2
                  CONTENTS, READONLY, DEBUGGING
 10 .debug_str    00000ac1  00000000  00000000  0000bb1c  2**0
                  CONTENTS, READONLY, DEBUGGING
 11 .debug_loc    00001f91  00000000  00000000  0000c5dd  2**0
                  CONTENTS, READONLY, DEBUGGING
 12 .debug_ranges 00000360  00000000  00000000  0000e56e  2**0
                  CONTENTS, READONLY, DEBUGGING

Disassembly of section .text:

00000000 <__vectors>:
       0:	0c 94 47 00 	jmp	0x8e	; 0x8e <__ctors_end>
       4:	0c 94 64 00 	jmp	0xc8	; 0xc8 <__bad_interrupt>
       8:	0c 94 64 00 	jmp	0xc8	; 0xc8 <__bad_interrupt>
       c:	0c 94 f5 01 	jmp	0x3ea	; 0x3ea <__vector_3>
      10:	0c 94 64 00 	jmp	0xc8	; 0xc8 <__bad_interrupt>
      14:	0c 94 64 00 	jmp	0xc8	; 0xc8 <__bad_interrupt>
      18:	0c 94 fb 02 	jmp	0x5f6	; 0x5f6 <__vector_6>
      1c:	0c 94 64 00 	jmp	0xc8	; 0xc8 <__bad_interrupt>
      20:	0c 94 64 00 	jmp	0xc8	; 0xc8 <__bad_interrupt>
      24:	0c 94 64 00 	jmp	0xc8	; 0xc8 <__bad_interrupt>
      28:	0c 94 64 00 	jmp	0xc8	; 0xc8 <__bad_interrupt>
      2c:	0c 94 64 00 	jmp	0xc8	; 0xc8 <__bad_interrupt>
      30:	0c 94 64 00 	jmp	0xc8	; 0xc8 <__bad_interrupt>
      34:	0c 94 64 00 	jmp	0xc8	; 0xc8 <__bad_interrupt>
      38:	0c 94 64 00 	jmp	0xc8	; 0xc8 <__bad_interrupt>
      3c:	0c 94 64 00 	jmp	0xc8	; 0xc8 <__bad_interrupt>
      40:	0c 94 64 00 	jmp	0xc8	; 0xc8 <__bad_interrupt>
      44:	0c 94 64 00 	jmp	0xc8	; 0xc8 <__bad_interrupt>
      48:	0c 94 64 00 	jmp	0xc8	; 0xc8 <__bad_interrupt>
      4c:	0c 94 64 00 	jmp	0xc8	; 0xc8 <__bad_interrupt>
      50:	0c 94 64 00 	jmp	0xc8	; 0xc8 <__bad_interrupt>
      54:	0c 94 64 00 	jmp	0xc8	; 0xc8 <__bad_interrupt>
      58:	0c 94 64 00 	jmp	0xc8	; 0xc8 <__bad_interrupt>
      5c:	0c 94 64 00 	jmp	0xc8	; 0xc8 <__bad_interrupt>
      60:	0c 94 64 00 	jmp	0xc8	; 0xc8 <__bad_interrupt>
      64:	0c 94 64 00 	jmp	0xc8	; 0xc8 <__bad_interrupt>
      68:	d7 02       	muls	r29, r23
      6a:	db 02       	muls	r29, r27
      6c:	d7 02       	muls	r29, r23
      6e:	df 02       	muls	r29, r31
      70:	d7 02       	muls	r29, r23
      72:	df 02       	muls	r29, r31
      74:	d7 02       	muls	r29, r23
      76:	d7 02       	muls	r29, r23
      78:	df 02       	muls	r29, r31
      7a:	d7 02       	muls	r29, r23
      7c:	df 02       	muls	r29, r31
      7e:	d7 02       	muls	r29, r23
      80:	97 04       	cpc	r9, r7
      82:	a0 04       	cpc	r10, r0
      84:	a9 04       	cpc	r10, r9
      86:	b2 04       	cpc	r11, r2
      88:	bb 04       	cpc	r11, r11
      8a:	c4 04       	cpc	r12, r4
      8c:	cd 04       	cpc	r12, r13

0000008e <__ctors_end>:
      8e:	11 24       	eor	r1, r1
      90:	1f be       	out	0x3f, r1	; 63
      92:	cf ef       	ldi	r28, 0xFF	; 255
      94:	d8 e0       	ldi	r29, 0x08	; 8
      96:	de bf       	out	0x3e, r29	; 62
      98:	cd bf       	out	0x3d, r28	; 61

0000009a <__do_copy_data>:
      9a:	14 e0       	ldi	r17, 0x04	; 4
      9c:	a0 e0       	ldi	r26, 0x00	; 0
      9e:	b1 e0       	ldi	r27, 0x01	; 1
      a0:	e0 e0       	ldi	r30, 0x00	; 0
      a2:	f6 e1       	ldi	r31, 0x16	; 22
      a4:	02 c0       	rjmp	.+4      	; 0xaa <__do_copy_data+0x10>
      a6:	05 90       	lpm	r0, Z+
      a8:	0d 92       	st	X+, r0
      aa:	aa 36       	cpi	r26, 0x6A	; 106
      ac:	b1 07       	cpc	r27, r17
      ae:	d9 f7       	brne	.-10     	; 0xa6 <__do_copy_data+0xc>

000000b0 <__do_clear_bss>:
      b0:	24 e0       	ldi	r18, 0x04	; 4
      b2:	aa e6       	ldi	r26, 0x6A	; 106
      b4:	b4 e0       	ldi	r27, 0x04	; 4
      b6:	01 c0       	rjmp	.+2      	; 0xba <.do_clear_bss_start>

000000b8 <.do_clear_bss_loop>:
      b8:	1d 92       	st	X+, r1

000000ba <.do_clear_bss_start>:
      ba:	a1 38       	cpi	r26, 0x81	; 129
      bc:	b2 07       	cpc	r27, r18
      be:	e1 f7       	brne	.-8      	; 0xb8 <.do_clear_bss_loop>
      c0:	0e 94 31 06 	call	0xc62	; 0xc62 <main>
      c4:	0c 94 fe 0a 	jmp	0x15fc	; 0x15fc <_exit>

000000c8 <__bad_interrupt>:
      c8:	0c 94 00 00 	jmp	0	; 0x0 <__vectors>

000000cc <LCDconfig>:
PORTD for LCD
----------------*/
void LCDconfig()
{
// Data lines of nibble - Output
	lcd_D7_ddr |= _BV(lcd_D7_bit);
      cc:	57 9a       	sbi	0x0a, 7	; 10
	lcd_D6_ddr |= _BV(lcd_D6_bit);
      ce:	56 9a       	sbi	0x0a, 6	; 10
	lcd_D5_ddr |= _BV(lcd_D5_bit);
      d0:	55 9a       	sbi	0x0a, 5	; 10
	lcd_D4_ddr |= _BV(lcd_D4_bit);
      d2:	54 9a       	sbi	0x0a, 4	; 10

// E pin (Enable) - Output
	lcd_E_ddr |= _BV(lcd_E_bit);
      d4:	53 9a       	sbi	0x0a, 3	; 10
	//turn off lcd_E
	lcd_E_port &= ~_BV(lcd_E_bit);
      d6:	5b 98       	cbi	0x0b, 3	; 11


// RS pin (Register Select) - Output
	lcd_RS_ddr |= _BV(lcd_RS_bit);
      d8:	52 9a       	sbi	0x0a, 2	; 10
	//turn off lcd_RS
	lcd_RS_port &= ~_BV(lcd_RS_bit);
      da:	5a 98       	cbi	0x0b, 2	; 11

// Back light cathode pin (K) - Output
	lcd_Backlight_ddr |= _BV(lcd_Backlight_bit);
      dc:	20 9a       	sbi	0x04, 0	; 4
	// Turn off back light
	// for it is GND or cathode pin, HIGH make it off
	lcd_Backlight_port |= _BV(lcd_Backlight_bit);
      de:	28 9a       	sbi	0x05, 0	; 5

// VDD pin (Power Supply) - Output
	// added by Insoo (Jul 11, 2017) to control LCD power consumption while sleep
	lcd_VDD_ddr |= _BV(lcd_VDD_bit);
      e0:	26 9a       	sbi	0x04, 6	; 4
	//turn off VDD
	lcd_VDD_port &= ~_BV(lcd_VDD_bit);
      e2:	2e 98       	cbi	0x05, 6	; 5
      e4:	08 95       	ret

000000e6 <SwitchConfig>:
PORTB for the button/tactile switch
----------------*/
void SwitchConfig()
{
	//Tactile switch - Input
	tactile_Switch_ddr &= ~_BV(tactile_Switch_bit);
      e6:	24 98       	cbi	0x04, 4	; 4
      e8:	08 95       	ret

000000ea <RTC_DS1307config>:
----------------*/
void RTC_DS1307config()
{
	// DS1307 VCC pin (Power Supply) - Output
	//added by Insoo (Jul 11, 2017)
	DS1307_VCC_ddr |= _BV(DS1307_VCC_bit);
      ea:	27 9a       	sbi	0x04, 7	; 4
	//turn off DS1307 RTC chip power
	DS1307_VCC_port &= ~_BV(DS1307_VCC_bit);
      ec:	2f 98       	cbi	0x05, 7	; 5
      ee:	08 95       	ret

000000f0 <DHT11config>:
----------------*/
void DHT11config()
{
	// DHT11 (temp & humid sensor) VCC pin (Power Supply) - Output
	//added by Insoo (Jul 14, 2017)
	DHT_VCC_ddr |= _BV(DHT_VCC_bit);
      f0:	22 9a       	sbi	0x04, 2	; 4
	//turn off DS1307 RTC chip power
	DHT_VCC_port &= ~_BV(DHT_VCC_bit);
      f2:	2a 98       	cbi	0x05, 2	; 5
      f4:	08 95       	ret

000000f6 <debugPinConfig>:
PORTB for the debug pin 
----------------*/
void debugPinConfig()
{
	// debug pin - Output
	debug_PIN_ddr |= _BV(debug_PIN_bit);
      f6:	23 9a       	sbi	0x04, 3	; 4
	//turn off debug_PIN_bit
	debug_PIN_port &= ~_BV(debug_PIN_bit);
      f8:	2b 98       	cbi	0x05, 3	; 5
      fa:	08 95       	ret

000000fc <config>:
#include <util/delay.h>

//------------------------------------
void config()
{
	LCDconfig();
      fc:	0e 94 66 00 	call	0xcc	; 0xcc <LCDconfig>
	SwitchConfig();
     100:	0e 94 73 00 	call	0xe6	; 0xe6 <SwitchConfig>
	RTC_DS1307config();
     104:	0e 94 75 00 	call	0xea	; 0xea <RTC_DS1307config>
	DHT11config();
     108:	0e 94 78 00 	call	0xf0	; 0xf0 <DHT11config>
	debugPinConfig();
     10c:	0e 94 7b 00 	call	0xf6	; 0xf6 <debugPinConfig>
     110:	08 95       	ret

00000112 <getDHT>:

char strTemp[3], strHumid[3];

//-------------------------------------------
void getDHT()
{
     112:	0f 93       	push	r16
     114:	1f 93       	push	r17
     116:	cf 93       	push	r28
     118:	df 93       	push	r29
     11a:	00 d0       	rcall	.+0      	; 0x11c <getDHT+0xa>
     11c:	00 d0       	rcall	.+0      	; 0x11e <getDHT+0xc>
     11e:	cd b7       	in	r28, 0x3d	; 61
     120:	de b7       	in	r29, 0x3e	; 62
	uint16_t temp; 
	uint16_t humid; 
	TinuDHT tinudht;
	DHT_VCC_ddr |= _BV(DHT_VCC_bit);
     122:	22 9a       	sbi	0x04, 2	; 4
	DHT_VCC_port |= _BV(DHT_VCC_bit);
     124:	2a 9a       	sbi	0x05, 2	; 5
	#else
		//round up by default
		__ticks_dc = (uint32_t)(ceil(fabs(__tmp)));
	#endif

	__builtin_avr_delay_cycles(__ticks_dc);
     126:	2f e9       	ldi	r18, 0x9F	; 159
     128:	86 e8       	ldi	r24, 0x86	; 134
     12a:	91 e0       	ldi	r25, 0x01	; 1
     12c:	21 50       	subi	r18, 0x01	; 1
     12e:	80 40       	sbci	r24, 0x00	; 0
     130:	90 40       	sbci	r25, 0x00	; 0
     132:	e1 f7       	brne	.-8      	; 0x12c <getDHT+0x1a>
     134:	00 c0       	rjmp	.+0      	; 0x136 <getDHT+0x24>
     136:	00 00       	nop
	_delay_ms(500);
	tinudht_read(&tinudht, DHT_SIG_bit);
     138:	61 e0       	ldi	r22, 0x01	; 1
     13a:	ce 01       	movw	r24, r28
     13c:	01 96       	adiw	r24, 0x01	; 1
     13e:	0e 94 8c 07 	call	0xf18	; 0xf18 <tinudht_read>
     142:	2f e9       	ldi	r18, 0x9F	; 159
     144:	86 e8       	ldi	r24, 0x86	; 134
     146:	91 e0       	ldi	r25, 0x01	; 1
     148:	21 50       	subi	r18, 0x01	; 1
     14a:	80 40       	sbci	r24, 0x00	; 0
     14c:	90 40       	sbci	r25, 0x00	; 0
     14e:	e1 f7       	brne	.-8      	; 0x148 <getDHT+0x36>
     150:	00 c0       	rjmp	.+0      	; 0x152 <getDHT+0x40>
     152:	00 00       	nop
	_delay_ms(500);
	tinudht_read(&tinudht, DHT_SIG_bit);
     154:	61 e0       	ldi	r22, 0x01	; 1
     156:	ce 01       	movw	r24, r28
     158:	01 96       	adiw	r24, 0x01	; 1
     15a:	0e 94 8c 07 	call	0xf18	; 0xf18 <tinudht_read>
	temp = tinudht.temperature;
	humid = tinudht.humidity;
     15e:	09 81       	ldd	r16, Y+1	; 0x01
     160:	1a 81       	ldd	r17, Y+2	; 0x02
    } else if (__radix < 2 || __radix > 36) {
	*__s = 0;
	return __s;
    } else {
	extern char *__itoa_ncheck (int, char *, unsigned char);
	return __itoa_ncheck (__val, __s, __radix);
     162:	4a e0       	ldi	r20, 0x0A	; 10
     164:	6c e7       	ldi	r22, 0x7C	; 124
     166:	74 e0       	ldi	r23, 0x04	; 4
     168:	8b 81       	ldd	r24, Y+3	; 0x03
     16a:	9c 81       	ldd	r25, Y+4	; 0x04
     16c:	0e 94 c1 0a 	call	0x1582	; 0x1582 <__itoa_ncheck>
     170:	4a e0       	ldi	r20, 0x0A	; 10
     172:	69 e7       	ldi	r22, 0x79	; 121
     174:	74 e0       	ldi	r23, 0x04	; 4
     176:	c8 01       	movw	r24, r16
     178:	0e 94 c1 0a 	call	0x1582	; 0x1582 <__itoa_ncheck>
	lcd_write_instruction_4d(lcd_SetCursor | lcd_LineTwo);
	_delay_us(DELAY_INST);                                  // 40 uS delay (min)
	lcd_write_string_4d((uint8_t *)strHumid);
	*/

}//getDHT
     17c:	0f 90       	pop	r0
     17e:	0f 90       	pop	r0
     180:	0f 90       	pop	r0
     182:	0f 90       	pop	r0
     184:	df 91       	pop	r29
     186:	cf 91       	pop	r28
     188:	1f 91       	pop	r17
     18a:	0f 91       	pop	r16
     18c:	08 95       	ret

0000018e <DS1307_GetTime>:
#define RAM_BEGIN 0x08
#define RAM_END 0x3F

void DS1307_GetTime(byte *hours, byte *minutes, byte *seconds)
// returns hours, minutes, and seconds in BCD format
{
     18e:	ef 92       	push	r14
     190:	ff 92       	push	r15
     192:	0f 93       	push	r16
     194:	1f 93       	push	r17
     196:	cf 93       	push	r28
     198:	df 93       	push	r29
     19a:	ec 01       	movw	r28, r24
     19c:	7b 01       	movw	r14, r22
     19e:	8a 01       	movw	r16, r20
	*hours = I2C_ReadRegister(DS1307,HOURS_REGISTER);
     1a0:	62 e0       	ldi	r22, 0x02	; 2
     1a2:	80 ed       	ldi	r24, 0xD0	; 208
     1a4:	0e 94 e0 01 	call	0x3c0	; 0x3c0 <I2C_ReadRegister>
     1a8:	88 83       	st	Y, r24
	*minutes = I2C_ReadRegister(DS1307,MINUTES_REGISTER);
     1aa:	61 e0       	ldi	r22, 0x01	; 1
     1ac:	80 ed       	ldi	r24, 0xD0	; 208
     1ae:	0e 94 e0 01 	call	0x3c0	; 0x3c0 <I2C_ReadRegister>
     1b2:	f7 01       	movw	r30, r14
     1b4:	80 83       	st	Z, r24
	*seconds = I2C_ReadRegister(DS1307,SECONDS_REGISTER);
     1b6:	60 e0       	ldi	r22, 0x00	; 0
     1b8:	80 ed       	ldi	r24, 0xD0	; 208
     1ba:	0e 94 e0 01 	call	0x3c0	; 0x3c0 <I2C_ReadRegister>
     1be:	f8 01       	movw	r30, r16
     1c0:	80 83       	st	Z, r24
	if (*hours & 0x40) // 12hr mode:
     1c2:	98 81       	ld	r25, Y
     1c4:	96 ff       	sbrs	r25, 6
     1c6:	03 c0       	rjmp	.+6      	; 0x1ce <DS1307_GetTime+0x40>
	*hours &= 0x1F; // use bottom 5 bits (pm bit = temp & 0x20)
     1c8:	9f 71       	andi	r25, 0x1F	; 31
     1ca:	98 83       	st	Y, r25
     1cc:	02 c0       	rjmp	.+4      	; 0x1d2 <DS1307_GetTime+0x44>
	else *hours &= 0x3F; // 24hr mode: use bottom 6 bits
     1ce:	9f 73       	andi	r25, 0x3F	; 63
     1d0:	98 83       	st	Y, r25
}//DS1307_GetTime
     1d2:	df 91       	pop	r29
     1d4:	cf 91       	pop	r28
     1d6:	1f 91       	pop	r17
     1d8:	0f 91       	pop	r16
     1da:	ff 90       	pop	r15
     1dc:	ef 90       	pop	r14
     1de:	08 95       	ret

000001e0 <DS1307_GetDate>:

void DS1307_GetDate(byte *months, byte *days, byte *years)
// returns months, days, and years in BCD format
{
     1e0:	ef 92       	push	r14
     1e2:	ff 92       	push	r15
     1e4:	0f 93       	push	r16
     1e6:	1f 93       	push	r17
     1e8:	cf 93       	push	r28
     1ea:	df 93       	push	r29
     1ec:	7c 01       	movw	r14, r24
     1ee:	8b 01       	movw	r16, r22
     1f0:	ea 01       	movw	r28, r20
	*months = I2C_ReadRegister(DS1307,MONTHS_REGISTER);
     1f2:	65 e0       	ldi	r22, 0x05	; 5
     1f4:	80 ed       	ldi	r24, 0xD0	; 208
     1f6:	0e 94 e0 01 	call	0x3c0	; 0x3c0 <I2C_ReadRegister>
     1fa:	f7 01       	movw	r30, r14
     1fc:	80 83       	st	Z, r24
	*days = I2C_ReadRegister(DS1307,DAYS_REGISTER);
     1fe:	64 e0       	ldi	r22, 0x04	; 4
     200:	80 ed       	ldi	r24, 0xD0	; 208
     202:	0e 94 e0 01 	call	0x3c0	; 0x3c0 <I2C_ReadRegister>
     206:	f8 01       	movw	r30, r16
     208:	80 83       	st	Z, r24
	*years = I2C_ReadRegister(DS1307,YEARS_REGISTER);
     20a:	66 e0       	ldi	r22, 0x06	; 6
     20c:	80 ed       	ldi	r24, 0xD0	; 208
     20e:	0e 94 e0 01 	call	0x3c0	; 0x3c0 <I2C_ReadRegister>
     212:	88 83       	st	Y, r24
}//DS1307_GetDate
     214:	df 91       	pop	r29
     216:	cf 91       	pop	r28
     218:	1f 91       	pop	r17
     21a:	0f 91       	pop	r16
     21c:	ff 90       	pop	r15
     21e:	ef 90       	pop	r14
     220:	08 95       	ret

00000222 <DS1307_GetWkDay>:

void DS1307_GetWkDay(byte *wkdays)
// returns days of week in BCD format
{
     222:	cf 93       	push	r28
     224:	df 93       	push	r29
     226:	ec 01       	movw	r28, r24
	*wkdays = I2C_ReadRegister(DS1307,DAYOFWK_REGISTER);
     228:	63 e0       	ldi	r22, 0x03	; 3
     22a:	80 ed       	ldi	r24, 0xD0	; 208
     22c:	0e 94 e0 01 	call	0x3c0	; 0x3c0 <I2C_ReadRegister>
     230:	88 83       	st	Y, r24
}//DS1307_GetWkDay
     232:	df 91       	pop	r29
     234:	cf 91       	pop	r28
     236:	08 95       	ret

00000238 <LCD_WriteDate>:
}//ShowDevices


//----------------------------------
void LCD_WriteDate()
{
     238:	cf 93       	push	r28
     23a:	df 93       	push	r29
     23c:	00 d0       	rcall	.+0      	; 0x23e <LCD_WriteDate+0x6>
     23e:	00 d0       	rcall	.+0      	; 0x240 <LCD_WriteDate+0x8>
     240:	cd b7       	in	r28, 0x3d	; 61
     242:	de b7       	in	r29, 0x3e	; 62
	byte months, days, years;
	byte wkDays;

	DS1307_GetDate(&months,&days,&years);
     244:	ae 01       	movw	r20, r28
     246:	4d 5f       	subi	r20, 0xFD	; 253
     248:	5f 4f       	sbci	r21, 0xFF	; 255
     24a:	be 01       	movw	r22, r28
     24c:	6e 5f       	subi	r22, 0xFE	; 254
     24e:	7f 4f       	sbci	r23, 0xFF	; 255
     250:	ce 01       	movw	r24, r28
     252:	01 96       	adiw	r24, 0x01	; 1
     254:	0e 94 f0 00 	call	0x1e0	; 0x1e0 <DS1307_GetDate>
	LCD_BCDDigits(months);
     258:	89 81       	ldd	r24, Y+1	; 0x01
     25a:	0e 94 db 03 	call	0x7b6	; 0x7b6 <LCD_BCDDigits>
	//LCD_Char('/');
	lcd_write_character_4d('/');
     25e:	8f e2       	ldi	r24, 0x2F	; 47
     260:	0e 94 47 03 	call	0x68e	; 0x68e <lcd_write_character_4d>
	LCD_BCDDigits(days);
     264:	8a 81       	ldd	r24, Y+2	; 0x02
     266:	0e 94 db 03 	call	0x7b6	; 0x7b6 <LCD_BCDDigits>
	//LCD_Char('/');
	lcd_write_character_4d('/');
     26a:	8f e2       	ldi	r24, 0x2F	; 47
     26c:	0e 94 47 03 	call	0x68e	; 0x68e <lcd_write_character_4d>
	LCD_BCDDigits(years);
     270:	8b 81       	ldd	r24, Y+3	; 0x03
     272:	0e 94 db 03 	call	0x7b6	; 0x7b6 <LCD_BCDDigits>

	lcd_write_character_4d(' ');
     276:	80 e2       	ldi	r24, 0x20	; 32
     278:	0e 94 47 03 	call	0x68e	; 0x68e <lcd_write_character_4d>
	DS1307_GetWkDay(&wkDays);
     27c:	ce 01       	movw	r24, r28
     27e:	04 96       	adiw	r24, 0x04	; 4
     280:	0e 94 11 01 	call	0x222	; 0x222 <DS1307_GetWkDay>
	LCD_BCDDigits(wkDays);
     284:	8c 81       	ldd	r24, Y+4	; 0x04
     286:	0e 94 db 03 	call	0x7b6	; 0x7b6 <LCD_BCDDigits>

}//LCD_WriteDate
     28a:	0f 90       	pop	r0
     28c:	0f 90       	pop	r0
     28e:	0f 90       	pop	r0
     290:	0f 90       	pop	r0
     292:	df 91       	pop	r29
     294:	cf 91       	pop	r28
     296:	08 95       	ret

00000298 <LCD_WriteTime>:

//----------------------------------
void LCD_WriteTime()
{
     298:	cf 93       	push	r28
     29a:	df 93       	push	r29
     29c:	00 d0       	rcall	.+0      	; 0x29e <LCD_WriteTime+0x6>
     29e:	1f 92       	push	r1
     2a0:	cd b7       	in	r28, 0x3d	; 61
     2a2:	de b7       	in	r29, 0x3e	; 62
	byte hours, minutes, seconds;
	DS1307_GetTime(&hours,&minutes,&seconds);
     2a4:	ae 01       	movw	r20, r28
     2a6:	4d 5f       	subi	r20, 0xFD	; 253
     2a8:	5f 4f       	sbci	r21, 0xFF	; 255
     2aa:	be 01       	movw	r22, r28
     2ac:	6e 5f       	subi	r22, 0xFE	; 254
     2ae:	7f 4f       	sbci	r23, 0xFF	; 255
     2b0:	ce 01       	movw	r24, r28
     2b2:	01 96       	adiw	r24, 0x01	; 1
     2b4:	0e 94 c7 00 	call	0x18e	; 0x18e <DS1307_GetTime>
	LCD_BCDDigits(hours);
     2b8:	89 81       	ldd	r24, Y+1	; 0x01
     2ba:	0e 94 db 03 	call	0x7b6	; 0x7b6 <LCD_BCDDigits>
	//LCD_Char(':');
	lcd_write_character_4d(':');
     2be:	8a e3       	ldi	r24, 0x3A	; 58
     2c0:	0e 94 47 03 	call	0x68e	; 0x68e <lcd_write_character_4d>

	LCD_BCDDigits(minutes);
     2c4:	8a 81       	ldd	r24, Y+2	; 0x02
     2c6:	0e 94 db 03 	call	0x7b6	; 0x7b6 <LCD_BCDDigits>
	//LCD_Char(':');
	lcd_write_character_4d(':');
     2ca:	8a e3       	ldi	r24, 0x3A	; 58
     2cc:	0e 94 47 03 	call	0x68e	; 0x68e <lcd_write_character_4d>

	LCD_BCDDigits(seconds);
     2d0:	8b 81       	ldd	r24, Y+3	; 0x03
     2d2:	0e 94 db 03 	call	0x7b6	; 0x7b6 <LCD_BCDDigits>
}//LCD_WriteTime
     2d6:	0f 90       	pop	r0
     2d8:	0f 90       	pop	r0
     2da:	0f 90       	pop	r0
     2dc:	df 91       	pop	r29
     2de:	cf 91       	pop	r28
     2e0:	08 95       	ret

000002e2 <LCD_TimeDate>:

//----------------------------------
void LCD_TimeDate()
{
	//LCD_Line(0);
	lcd_write_instruction_4d(lcd_SetCursor | lcd_LineOne);
     2e2:	80 e8       	ldi	r24, 0x80	; 128
     2e4:	0e 94 83 03 	call	0x706	; 0x706 <lcd_write_instruction_4d>
	LCD_WriteTime();
     2e8:	0e 94 4c 01 	call	0x298	; 0x298 <LCD_WriteTime>
	LCD_blankChar(8);
     2ec:	88 e0       	ldi	r24, 0x08	; 8
     2ee:	0e 94 eb 03 	call	0x7d6	; 0x7d6 <LCD_blankChar>

	//LCD_Line(1);
	lcd_write_instruction_4d(lcd_SetCursor | lcd_LineTwo);
     2f2:	80 ec       	ldi	r24, 0xC0	; 192
     2f4:	0e 94 83 03 	call	0x706	; 0x706 <lcd_write_instruction_4d>
	LCD_WriteDate();
     2f8:	0e 94 1c 01 	call	0x238	; 0x238 <LCD_WriteDate>
	LCD_blankChar(8);
     2fc:	88 e0       	ldi	r24, 0x08	; 8
     2fe:	0e 94 eb 03 	call	0x7d6	; 0x7d6 <LCD_blankChar>
     302:	08 95       	ret

00000304 <LCD_TimeDateTempHumid>:

//----------------------------------
void LCD_TimeDateTempHumid()
{
	//LCD_Line(0);
	getDHT();
     304:	0e 94 89 00 	call	0x112	; 0x112 <getDHT>
	//_delay_ms(1000);
	lcd_write_instruction_4d(lcd_SetCursor | lcd_LineOne);
     308:	80 e8       	ldi	r24, 0x80	; 128
     30a:	0e 94 83 03 	call	0x706	; 0x706 <lcd_write_instruction_4d>
	LCD_WriteTime();
     30e:	0e 94 4c 01 	call	0x298	; 0x298 <LCD_WriteTime>
	LCD_blankChar(1);
     312:	81 e0       	ldi	r24, 0x01	; 1
     314:	0e 94 eb 03 	call	0x7d6	; 0x7d6 <LCD_blankChar>
	lcd_write_string_4d((uint8_t *)strTemp);
     318:	8c e7       	ldi	r24, 0x7C	; 124
     31a:	94 e0       	ldi	r25, 0x04	; 4
     31c:	0e 94 54 03 	call	0x6a8	; 0x6a8 <lcd_write_string_4d>
	//LCD_blankChar(1);
	lcd_write_character_4d('C');
     320:	83 e4       	ldi	r24, 0x43	; 67
     322:	0e 94 47 03 	call	0x68e	; 0x68e <lcd_write_character_4d>

	//LCD_Line(1);
	lcd_write_instruction_4d(lcd_SetCursor | lcd_LineTwo);
     326:	80 ec       	ldi	r24, 0xC0	; 192
     328:	0e 94 83 03 	call	0x706	; 0x706 <lcd_write_instruction_4d>
	LCD_WriteDate();
     32c:	0e 94 1c 01 	call	0x238	; 0x238 <LCD_WriteDate>
	LCD_blankChar(2);
     330:	82 e0       	ldi	r24, 0x02	; 2
     332:	0e 94 eb 03 	call	0x7d6	; 0x7d6 <LCD_blankChar>
	lcd_write_string_4d((uint8_t *)strHumid);
     336:	89 e7       	ldi	r24, 0x79	; 121
     338:	94 e0       	ldi	r25, 0x04	; 4
     33a:	0e 94 54 03 	call	0x6a8	; 0x6a8 <lcd_write_string_4d>
	//LCD_blankChar(1);
	//lcd_write_character_4d('%');
	lcd_write_character_4d(37);
     33e:	85 e2       	ldi	r24, 0x25	; 37
     340:	0e 94 47 03 	call	0x68e	; 0x68e <lcd_write_character_4d>
     344:	08 95       	ret

00000346 <I2C_Init>:
 {
	 I2C_Start(busAddr); // send bus address
	 I2C_Write(deviceRegister); // first byte = device register address
	 I2C_Write(data); // second byte = data for device register
	 I2C_Stop();
 }
     346:	10 92 b9 00 	sts	0x00B9, r1	; 0x8000b9 <__TEXT_REGION_LENGTH__+0x7e00b9>
     34a:	8d ef       	ldi	r24, 0xFD	; 253
     34c:	80 93 b8 00 	sts	0x00B8, r24	; 0x8000b8 <__TEXT_REGION_LENGTH__+0x7e00b8>
     350:	08 95       	ret

00000352 <I2C_Detect>:
     352:	94 ea       	ldi	r25, 0xA4	; 164
     354:	90 93 bc 00 	sts	0x00BC, r25	; 0x8000bc <__TEXT_REGION_LENGTH__+0x7e00bc>
     358:	ec eb       	ldi	r30, 0xBC	; 188
     35a:	f0 e0       	ldi	r31, 0x00	; 0
     35c:	90 81       	ld	r25, Z
     35e:	99 23       	and	r25, r25
     360:	ec f7       	brge	.-6      	; 0x35c <I2C_Detect+0xa>
     362:	80 93 bb 00 	sts	0x00BB, r24	; 0x8000bb <__TEXT_REGION_LENGTH__+0x7e00bb>
     366:	84 e8       	ldi	r24, 0x84	; 132
     368:	80 93 bc 00 	sts	0x00BC, r24	; 0x8000bc <__TEXT_REGION_LENGTH__+0x7e00bc>
     36c:	ec eb       	ldi	r30, 0xBC	; 188
     36e:	f0 e0       	ldi	r31, 0x00	; 0
     370:	80 81       	ld	r24, Z
     372:	88 23       	and	r24, r24
     374:	ec f7       	brge	.-6      	; 0x370 <I2C_Detect+0x1e>
     376:	90 91 b9 00 	lds	r25, 0x00B9	; 0x8000b9 <__TEXT_REGION_LENGTH__+0x7e00b9>
     37a:	98 7f       	andi	r25, 0xF8	; 248
     37c:	81 e0       	ldi	r24, 0x01	; 1
     37e:	98 31       	cpi	r25, 0x18	; 24
     380:	09 f0       	breq	.+2      	; 0x384 <I2C_Detect+0x32>
     382:	80 e0       	ldi	r24, 0x00	; 0
     384:	08 95       	ret

00000386 <I2C_Write>:
     386:	80 93 bb 00 	sts	0x00BB, r24	; 0x8000bb <__TEXT_REGION_LENGTH__+0x7e00bb>
     38a:	84 e8       	ldi	r24, 0x84	; 132
     38c:	80 93 bc 00 	sts	0x00BC, r24	; 0x8000bc <__TEXT_REGION_LENGTH__+0x7e00bc>
     390:	ec eb       	ldi	r30, 0xBC	; 188
     392:	f0 e0       	ldi	r31, 0x00	; 0
     394:	80 81       	ld	r24, Z
     396:	88 23       	and	r24, r24
     398:	ec f7       	brge	.-6      	; 0x394 <I2C_Write+0xe>
     39a:	90 91 b9 00 	lds	r25, 0x00B9	; 0x8000b9 <__TEXT_REGION_LENGTH__+0x7e00b9>
     39e:	98 7f       	andi	r25, 0xF8	; 248
     3a0:	81 e0       	ldi	r24, 0x01	; 1
     3a2:	98 32       	cpi	r25, 0x28	; 40
     3a4:	09 f4       	brne	.+2      	; 0x3a8 <I2C_Write+0x22>
     3a6:	80 e0       	ldi	r24, 0x00	; 0
     3a8:	08 95       	ret

000003aa <I2C_ReadNACK>:
     3aa:	84 e8       	ldi	r24, 0x84	; 132
     3ac:	80 93 bc 00 	sts	0x00BC, r24	; 0x8000bc <__TEXT_REGION_LENGTH__+0x7e00bc>
     3b0:	ec eb       	ldi	r30, 0xBC	; 188
     3b2:	f0 e0       	ldi	r31, 0x00	; 0
     3b4:	80 81       	ld	r24, Z
     3b6:	88 23       	and	r24, r24
     3b8:	ec f7       	brge	.-6      	; 0x3b4 <I2C_ReadNACK+0xa>
     3ba:	80 91 bb 00 	lds	r24, 0x00BB	; 0x8000bb <__TEXT_REGION_LENGTH__+0x7e00bb>
     3be:	08 95       	ret

000003c0 <I2C_ReadRegister>:
 byte I2C_ReadRegister(byte busAddr, byte deviceRegister)
 {
     3c0:	cf 93       	push	r28
     3c2:	df 93       	push	r29
     3c4:	c8 2f       	mov	r28, r24
     3c6:	d6 2f       	mov	r29, r22
	 }
	 return 0; // none detected, so return 0.
 }
 void I2C_Start (byte slaveAddr)
 {
	 I2C_Detect(slaveAddr);
     3c8:	0e 94 a9 01 	call	0x352	; 0x352 <I2C_Detect>
 }
 byte I2C_ReadRegister(byte busAddr, byte deviceRegister)
 {
	 byte data = 0;
	 I2C_Start(busAddr); // send device address
	 I2C_Write(deviceRegister); // set register pointer
     3cc:	8d 2f       	mov	r24, r29
     3ce:	0e 94 c3 01 	call	0x386	; 0x386 <I2C_Write>
	 }
	 return 0; // none detected, so return 0.
 }
 void I2C_Start (byte slaveAddr)
 {
	 I2C_Detect(slaveAddr);
     3d2:	81 e0       	ldi	r24, 0x01	; 1
     3d4:	8c 0f       	add	r24, r28
     3d6:	0e 94 a9 01 	call	0x352	; 0x352 <I2C_Detect>
 {
	 byte data = 0;
	 I2C_Start(busAddr); // send device address
	 I2C_Write(deviceRegister); // set register pointer
	 I2C_Start(busAddr+READ); // restart as a read operation
	 data = I2C_ReadNACK(); // read the register data
     3da:	0e 94 d5 01 	call	0x3aa	; 0x3aa <I2C_ReadNACK>
	 I2C_Stop(); // stop
     3de:	94 e9       	ldi	r25, 0x94	; 148
     3e0:	90 93 bc 00 	sts	0x00BC, r25	; 0x8000bc <__TEXT_REGION_LENGTH__+0x7e00bc>
	 return data;
 }
     3e4:	df 91       	pop	r29
     3e6:	cf 91       	pop	r28
     3e8:	08 95       	ret

000003ea <__vector_3>:
    EIMSK = 0x00;

    TIMSK0 = 0x02; //timer 0 interrupt sources

    PRR = 0x00; //power controller
    sei(); //re-enable interrupts
     3ea:	1f 92       	push	r1
     3ec:	0f 92       	push	r0
     3ee:	0f b6       	in	r0, 0x3f	; 63
     3f0:	0f 92       	push	r0
     3f2:	11 24       	eor	r1, r1
     3f4:	2f 93       	push	r18
     3f6:	3f 93       	push	r19
     3f8:	4f 93       	push	r20
     3fa:	5f 93       	push	r21
     3fc:	6f 93       	push	r22
     3fe:	7f 93       	push	r23
     400:	8f 93       	push	r24
     402:	9f 93       	push	r25
     404:	af 93       	push	r26
     406:	bf 93       	push	r27
     408:	cf 93       	push	r28
     40a:	df 93       	push	r29
     40c:	ef 93       	push	r30
     40e:	ff 93       	push	r31
     410:	80 91 77 04 	lds	r24, 0x0477	; 0x800477 <btcnt>
     414:	91 e0       	ldi	r25, 0x01	; 1
     416:	98 0f       	add	r25, r24
     418:	90 93 77 04 	sts	0x0477, r25	; 0x800477 <btcnt>
     41c:	80 fd       	sbrc	r24, 0
     41e:	2f c0       	rjmp	.+94     	; 0x47e <__LOCK_REGION_LENGTH__+0x7e>
     420:	80 91 78 04 	lds	r24, 0x0478	; 0x800478 <pwrOn>
     424:	81 11       	cpse	r24, r1
     426:	0d c0       	rjmp	.+26     	; 0x442 <__LOCK_REGION_LENGTH__+0x42>
     428:	0e 94 3f 08 	call	0x107e	; 0x107e <makePDasOutput>
     42c:	0e 94 90 03 	call	0x720	; 0x720 <lcd_init_4d>
     430:	83 ec       	ldi	r24, 0xC3	; 195
     432:	99 e0       	ldi	r25, 0x09	; 9
     434:	01 97       	sbiw	r24, 0x01	; 1
     436:	f1 f7       	brne	.-4      	; 0x434 <__LOCK_REGION_LENGTH__+0x34>
     438:	00 c0       	rjmp	.+0      	; 0x43a <__LOCK_REGION_LENGTH__+0x3a>
     43a:	00 00       	nop
     43c:	81 e0       	ldi	r24, 0x01	; 1
     43e:	80 93 78 04 	sts	0x0478, r24	; 0x800478 <pwrOn>
     442:	1c 9b       	sbis	0x03, 4	; 3
     444:	16 c0       	rjmp	.+44     	; 0x472 <__LOCK_REGION_LENGTH__+0x72>
     446:	cb e6       	ldi	r28, 0x6B	; 107
     448:	d0 e0       	ldi	r29, 0x00	; 0
     44a:	88 81       	ld	r24, Y
     44c:	8f 7e       	andi	r24, 0xEF	; 239
     44e:	88 83       	st	Y, r24
     450:	81 ee       	ldi	r24, 0xE1	; 225
     452:	94 e0       	ldi	r25, 0x04	; 4
     454:	01 97       	sbiw	r24, 0x01	; 1
     456:	f1 f7       	brne	.-4      	; 0x454 <__LOCK_REGION_LENGTH__+0x54>
     458:	00 c0       	rjmp	.+0      	; 0x45a <__LOCK_REGION_LENGTH__+0x5a>
     45a:	00 00       	nop
     45c:	0e 94 75 09 	call	0x12ea	; 0x12ea <countButton>
     460:	88 81       	ld	r24, Y
     462:	80 61       	ori	r24, 0x10	; 16
     464:	88 83       	st	Y, r24
     466:	81 ee       	ldi	r24, 0xE1	; 225
     468:	94 e0       	ldi	r25, 0x04	; 4
     46a:	01 97       	sbiw	r24, 0x01	; 1
     46c:	f1 f7       	brne	.-4      	; 0x46a <__LOCK_REGION_LENGTH__+0x6a>
     46e:	00 c0       	rjmp	.+0      	; 0x470 <__LOCK_REGION_LENGTH__+0x70>
     470:	00 00       	nop
     472:	8f e4       	ldi	r24, 0x4F	; 79
     474:	93 ec       	ldi	r25, 0xC3	; 195
     476:	01 97       	sbiw	r24, 0x01	; 1
     478:	f1 f7       	brne	.-4      	; 0x476 <__LOCK_REGION_LENGTH__+0x76>
     47a:	00 c0       	rjmp	.+0      	; 0x47c <__LOCK_REGION_LENGTH__+0x7c>
     47c:	00 00       	nop
     47e:	ff 91       	pop	r31
     480:	ef 91       	pop	r30
     482:	df 91       	pop	r29
     484:	cf 91       	pop	r28
     486:	bf 91       	pop	r27
     488:	af 91       	pop	r26
     48a:	9f 91       	pop	r25
     48c:	8f 91       	pop	r24
     48e:	7f 91       	pop	r23
     490:	6f 91       	pop	r22
     492:	5f 91       	pop	r21
     494:	4f 91       	pop	r20
     496:	3f 91       	pop	r19
     498:	2f 91       	pop	r18
     49a:	0f 90       	pop	r0
     49c:	0f be       	out	0x3f, r0	; 63
     49e:	0f 90       	pop	r0
     4a0:	1f 90       	pop	r1
     4a2:	18 95       	reti

000004a4 <initINT>:
     4a4:	f8 94       	cli
     4a6:	e8 e6       	ldi	r30, 0x68	; 104
     4a8:	f0 e0       	ldi	r31, 0x00	; 0
     4aa:	80 81       	ld	r24, Z
     4ac:	81 60       	ori	r24, 0x01	; 1
     4ae:	80 83       	st	Z, r24
     4b0:	eb e6       	ldi	r30, 0x6B	; 107
     4b2:	f0 e0       	ldi	r31, 0x00	; 0
     4b4:	80 81       	ld	r24, Z
     4b6:	80 61       	ori	r24, 0x10	; 16
     4b8:	80 83       	st	Z, r24
     4ba:	78 94       	sei
     4bc:	08 95       	ret

000004be <proceedClock>:
}

void proceedClock()
{
    //WDT interrupt occurs every 8 seconds
    sec += 8;
     4be:	80 91 73 04 	lds	r24, 0x0473	; 0x800473 <sec>
     4c2:	88 5f       	subi	r24, 0xF8	; 248
     4c4:	80 93 73 04 	sts	0x0473, r24	; 0x800473 <sec>
    accumulatedSec += 8;
     4c8:	20 91 6c 04 	lds	r18, 0x046C	; 0x80046c <accumulatedSec>
     4cc:	28 5f       	subi	r18, 0xF8	; 248
     4ce:	20 93 6c 04 	sts	0x046C, r18	; 0x80046c <accumulatedSec>

    //real-time fetched from compiled time constant __TIME__
    //calculate minutes
    if (sec >= 60)
     4d2:	8c 33       	cpi	r24, 0x3C	; 60
     4d4:	5c f0       	brlt	.+22     	; 0x4ec <proceedClock+0x2e>
    {
        sec%=60;
        min++;
     4d6:	90 91 74 04 	lds	r25, 0x0474	; 0x800474 <min>
     4da:	9f 5f       	subi	r25, 0xFF	; 255
     4dc:	90 93 74 04 	sts	0x0474, r25	; 0x800474 <min>

    //real-time fetched from compiled time constant __TIME__
    //calculate minutes
    if (sec >= 60)
    {
        sec%=60;
     4e0:	6c e3       	ldi	r22, 0x3C	; 60
     4e2:	0e 94 10 0a 	call	0x1420	; 0x1420 <__divmodqi4>
        min++;
        sec += 2;
     4e6:	9e 5f       	subi	r25, 0xFE	; 254
     4e8:	90 93 73 04 	sts	0x0473, r25	; 0x800473 <sec>
    }
    //system run-time acculated time
    //calculate minutes
    if (accumulatedSec >= 60)
     4ec:	2c 33       	cpi	r18, 0x3C	; 60
     4ee:	64 f0       	brlt	.+24     	; 0x508 <proceedClock+0x4a>
    {
        accumulatedSec%=60;
        accumulatedMin++;
     4f0:	80 91 6d 04 	lds	r24, 0x046D	; 0x80046d <accumulatedMin>
     4f4:	8f 5f       	subi	r24, 0xFF	; 255
     4f6:	80 93 6d 04 	sts	0x046D, r24	; 0x80046d <accumulatedMin>
    }
    //system run-time acculated time
    //calculate minutes
    if (accumulatedSec >= 60)
    {
        accumulatedSec%=60;
     4fa:	82 2f       	mov	r24, r18
     4fc:	6c e3       	ldi	r22, 0x3C	; 60
     4fe:	0e 94 10 0a 	call	0x1420	; 0x1420 <__divmodqi4>
        accumulatedMin++;
        accumulatedSec += 2;
     502:	9e 5f       	subi	r25, 0xFE	; 254
     504:	90 93 6c 04 	sts	0x046C, r25	; 0x80046c <accumulatedSec>
    }

    //real-time fetched from compiled time constant __TIME__
    //calculate hours
    if (min >= 60)
     508:	80 91 74 04 	lds	r24, 0x0474	; 0x800474 <min>
     50c:	8c 33       	cpi	r24, 0x3C	; 60
     50e:	54 f0       	brlt	.+20     	; 0x524 <proceedClock+0x66>
    {
        min%=60;
     510:	6c e3       	ldi	r22, 0x3C	; 60
     512:	0e 94 10 0a 	call	0x1420	; 0x1420 <__divmodqi4>
     516:	90 93 74 04 	sts	0x0474, r25	; 0x800474 <min>
        hour++;
     51a:	80 91 75 04 	lds	r24, 0x0475	; 0x800475 <hour>
     51e:	8f 5f       	subi	r24, 0xFF	; 255
     520:	80 93 75 04 	sts	0x0475, r24	; 0x800475 <hour>
    }
    //system run-time acculated time
    //calculate hours
    //if ((accumulatedMin == 60) && (hourlyAdjusted == 0))
    if (accumulatedMin == 60)
     524:	80 91 6d 04 	lds	r24, 0x046D	; 0x80046d <accumulatedMin>
     528:	8c 33       	cpi	r24, 0x3C	; 60
     52a:	61 f4       	brne	.+24     	; 0x544 <proceedClock+0x86>
    {
        // adjust time by experiments
        //hourlyAdjusted = 1;
        sec -= 20;
     52c:	80 91 73 04 	lds	r24, 0x0473	; 0x800473 <sec>
     530:	84 51       	subi	r24, 0x14	; 20
     532:	80 93 73 04 	sts	0x0473, r24	; 0x800473 <sec>
        accumulatedMin = 0;
     536:	10 92 6d 04 	sts	0x046D, r1	; 0x80046d <accumulatedMin>
        accumulatedHour++;
     53a:	80 91 6e 04 	lds	r24, 0x046E	; 0x80046e <accumulatedHour>
     53e:	8f 5f       	subi	r24, 0xFF	; 255
     540:	80 93 6e 04 	sts	0x046E, r24	; 0x80046e <accumulatedHour>
    }
    /*
    if (accumulatedMin == 59)
        hourlyAdjusted = 0;
    */
    if (hour >= 24)
     544:	80 91 75 04 	lds	r24, 0x0475	; 0x800475 <hour>
     548:	88 31       	cpi	r24, 0x18	; 24
     54a:	04 f1       	brlt	.+64     	; 0x58c <proceedClock+0xce>
    {
        hour=0;
     54c:	10 92 75 04 	sts	0x0475, r1	; 0x800475 <hour>
        date++;
     550:	80 91 70 04 	lds	r24, 0x0470	; 0x800470 <date>
     554:	8f 5f       	subi	r24, 0xFF	; 255
     556:	80 93 70 04 	sts	0x0470, r24	; 0x800470 <date>
        day++;
     55a:	80 91 6f 04 	lds	r24, 0x046F	; 0x80046f <day>
     55e:	8f 5f       	subi	r24, 0xFF	; 255
        if (day >= 7)
     560:	87 30       	cpi	r24, 0x07	; 7
     562:	1c f4       	brge	.+6      	; 0x56a <proceedClock+0xac>
    */
    if (hour >= 24)
    {
        hour=0;
        date++;
        day++;
     564:	80 93 6f 04 	sts	0x046F, r24	; 0x80046f <day>
     568:	11 c0       	rjmp	.+34     	; 0x58c <proceedClock+0xce>
        if (day >= 7)
            day %= 7;
     56a:	93 e9       	ldi	r25, 0x93	; 147
     56c:	89 02       	muls	r24, r25
     56e:	91 2d       	mov	r25, r1
     570:	11 24       	eor	r1, r1
     572:	98 0f       	add	r25, r24
     574:	95 95       	asr	r25
     576:	95 95       	asr	r25
     578:	87 fd       	sbrc	r24, 7
     57a:	93 95       	inc	r25
     57c:	29 2f       	mov	r18, r25
     57e:	22 0f       	add	r18, r18
     580:	22 0f       	add	r18, r18
     582:	22 0f       	add	r18, r18
     584:	29 1b       	sub	r18, r25
     586:	82 1b       	sub	r24, r18
     588:	80 93 6f 04 	sts	0x046F, r24	; 0x80046f <day>
    }
    switch (month)
     58c:	20 91 71 04 	lds	r18, 0x0471	; 0x800471 <month>
     590:	82 2f       	mov	r24, r18
     592:	02 2e       	mov	r0, r18
     594:	00 0c       	add	r0, r0
     596:	99 0b       	sbc	r25, r25
     598:	aa 0b       	sbc	r26, r26
     59a:	bb 0b       	sbc	r27, r27
     59c:	fc 01       	movw	r30, r24
     59e:	31 97       	sbiw	r30, 0x01	; 1
     5a0:	ec 30       	cpi	r30, 0x0C	; 12
     5a2:	f1 05       	cpc	r31, r1
     5a4:	60 f4       	brcc	.+24     	; 0x5be <proceedClock+0x100>
     5a6:	ec 5c       	subi	r30, 0xCC	; 204
     5a8:	ff 4f       	sbci	r31, 0xFF	; 255
     5aa:	0c 94 32 0a 	jmp	0x1464	; 0x1464 <__tablejump2__>
        case 5:
        case 7:
        case 8:
        case 10:
        case 12:
            monthEndDate = 31;
     5ae:	8f e1       	ldi	r24, 0x1F	; 31
     5b0:	80 93 7f 04 	sts	0x047F, r24	; 0x80047f <monthEndDate>
            break;
     5b4:	07 c0       	rjmp	.+14     	; 0x5c4 <proceedClock+0x106>
        case 2:
            monthEndDate = 28;
     5b6:	8c e1       	ldi	r24, 0x1C	; 28
     5b8:	80 93 7f 04 	sts	0x047F, r24	; 0x80047f <monthEndDate>
            break;
     5bc:	03 c0       	rjmp	.+6      	; 0x5c4 <proceedClock+0x106>
        default:
            monthEndDate = 30;
     5be:	8e e1       	ldi	r24, 0x1E	; 30
     5c0:	80 93 7f 04 	sts	0x047F, r24	; 0x80047f <monthEndDate>
    }//switch (month)

    if (date > monthEndDate)
     5c4:	90 91 70 04 	lds	r25, 0x0470	; 0x800470 <date>
     5c8:	80 91 7f 04 	lds	r24, 0x047F	; 0x80047f <monthEndDate>
     5cc:	89 17       	cp	r24, r25
     5ce:	34 f4       	brge	.+12     	; 0x5dc <proceedClock+0x11e>
    {
        date=1;
     5d0:	81 e0       	ldi	r24, 0x01	; 1
     5d2:	80 93 70 04 	sts	0x0470, r24	; 0x800470 <date>
        month++;
     5d6:	2f 5f       	subi	r18, 0xFF	; 255
     5d8:	20 93 71 04 	sts	0x0471, r18	; 0x800471 <month>
    }

    if (month > 12)
     5dc:	80 91 71 04 	lds	r24, 0x0471	; 0x800471 <month>
     5e0:	8d 30       	cpi	r24, 0x0D	; 13
     5e2:	44 f0       	brlt	.+16     	; 0x5f4 <proceedClock+0x136>
    {
        month=1;
     5e4:	81 e0       	ldi	r24, 0x01	; 1
     5e6:	80 93 71 04 	sts	0x0471, r24	; 0x800471 <month>
        year++;
     5ea:	80 91 72 04 	lds	r24, 0x0472	; 0x800472 <year>
     5ee:	8f 5f       	subi	r24, 0xFF	; 255
     5f0:	80 93 72 04 	sts	0x0472, r24	; 0x800472 <year>
     5f4:	08 95       	ret

000005f6 <__vector_6>:
	}//if ((btcnt++ % 2) == 0)
}//ISR(PCINT0_vect)

//-----------------------------------
ISR(WDT_vect)
{
     5f6:	1f 92       	push	r1
     5f8:	0f 92       	push	r0
     5fa:	0f b6       	in	r0, 0x3f	; 63
     5fc:	0f 92       	push	r0
     5fe:	11 24       	eor	r1, r1
     600:	2f 93       	push	r18
     602:	3f 93       	push	r19
     604:	4f 93       	push	r20
     606:	5f 93       	push	r21
     608:	6f 93       	push	r22
     60a:	7f 93       	push	r23
     60c:	8f 93       	push	r24
     60e:	9f 93       	push	r25
     610:	af 93       	push	r26
     612:	bf 93       	push	r27
     614:	ef 93       	push	r30
     616:	ff 93       	push	r31
    //PORTB |= _BV(PB4);
    proceedClock();
     618:	0e 94 5f 02 	call	0x4be	; 0x4be <proceedClock>
    lcd_dispWords(wd%MAXWORDCNT);
     61c:	80 91 76 04 	lds	r24, 0x0476	; 0x800476 <wd>
     620:	9d ec       	ldi	r25, 0xCD	; 205
     622:	89 9f       	mul	r24, r25
     624:	91 2d       	mov	r25, r1
     626:	11 24       	eor	r1, r1
     628:	96 95       	lsr	r25
     62a:	96 95       	lsr	r25
     62c:	96 95       	lsr	r25
     62e:	99 0f       	add	r25, r25
     630:	29 2f       	mov	r18, r25
     632:	22 0f       	add	r18, r18
     634:	22 0f       	add	r18, r18
     636:	92 0f       	add	r25, r18
     638:	89 1b       	sub	r24, r25
     63a:	0e 94 8d 05 	call	0xb1a	; 0xb1a <lcd_dispWords>
    wd++;
     63e:	80 91 76 04 	lds	r24, 0x0476	; 0x800476 <wd>
     642:	8f 5f       	subi	r24, 0xFF	; 255
     644:	80 93 76 04 	sts	0x0476, r24	; 0x800476 <wd>
    //lcd_dispRealClock();
    //PORTB &= ~_BV(PB4);
}//ISR(WDT_vect)
     648:	ff 91       	pop	r31
     64a:	ef 91       	pop	r30
     64c:	bf 91       	pop	r27
     64e:	af 91       	pop	r26
     650:	9f 91       	pop	r25
     652:	8f 91       	pop	r24
     654:	7f 91       	pop	r23
     656:	6f 91       	pop	r22
     658:	5f 91       	pop	r21
     65a:	4f 91       	pop	r20
     65c:	3f 91       	pop	r19
     65e:	2f 91       	pop	r18
     660:	0f 90       	pop	r0
     662:	0f be       	out	0x3f, r0	; 63
     664:	0f 90       	pop	r0
     666:	1f 90       	pop	r1
     668:	18 95       	reti

0000066a <lcd_write_4>:
  Exit:     no parameters
  Notes:    use either time delays or the busy flag
*/
void lcd_write_4(uint8_t theByte)
{
    lcd_D7_port &= ~_BV(lcd_D7_bit);                        // assume that data is '0'
     66a:	5f 98       	cbi	0x0b, 7	; 11
    if (theByte & 1<<7) lcd_D7_port |= _BV(lcd_D7_bit);     // make data = '1' if necessary
     66c:	88 23       	and	r24, r24
     66e:	0c f4       	brge	.+2      	; 0x672 <lcd_write_4+0x8>
     670:	5f 9a       	sbi	0x0b, 7	; 11

    lcd_D6_port &= ~_BV(lcd_D6_bit);                        // repeat for each data bit
     672:	5e 98       	cbi	0x0b, 6	; 11
    if (theByte & 1<<6) lcd_D6_port |= _BV(lcd_D6_bit);
     674:	86 fd       	sbrc	r24, 6
     676:	5e 9a       	sbi	0x0b, 6	; 11

    lcd_D5_port &= ~_BV(lcd_D5_bit);
     678:	5d 98       	cbi	0x0b, 5	; 11
    if (theByte & 1<<5) lcd_D5_port |= _BV(lcd_D5_bit);
     67a:	85 fd       	sbrc	r24, 5
     67c:	5d 9a       	sbi	0x0b, 5	; 11

    lcd_D4_port &= ~_BV(lcd_D4_bit);
     67e:	5c 98       	cbi	0x0b, 4	; 11
    if (theByte & 1<<4) lcd_D4_port |= _BV(lcd_D4_bit);
     680:	84 fd       	sbrc	r24, 4
     682:	5c 9a       	sbi	0x0b, 4	; 11

// write the data
                                                    // 'Address set-up time' (40 nS)
    lcd_E_port |= _BV(lcd_E_bit);                   // Enable pin high
     684:	5b 9a       	sbi	0x0b, 3	; 11
	#else
		//round up by default
		__ticks_dc = (uint32_t)(ceil(fabs(__tmp)));
	#endif

	__builtin_avr_delay_cycles(__ticks_dc);
     686:	00 00       	nop
    _delay_us(1);                                   // implement 'Data set-up time' (80 nS) and 'Enable pulse width' (230 nS)
    lcd_E_port &= ~_BV(lcd_E_bit);                  // Enable pin low
     688:	5b 98       	cbi	0x0b, 3	; 11
     68a:	00 00       	nop
     68c:	08 95       	ret

0000068e <lcd_write_character_4d>:
  Exit:     no parameters
  Notes:    does not deal with RW (busy flag is not implemented)
*/

void lcd_write_character_4d(uint8_t theData)
{
     68e:	cf 93       	push	r28
     690:	c8 2f       	mov	r28, r24
    lcd_RS_port |= _BV(lcd_RS_bit);                 // select the Data Register (RS high)
     692:	5a 9a       	sbi	0x0b, 2	; 11
    lcd_E_port &= ~_BV(lcd_E_bit);                  // make sure E is initially low
     694:	5b 98       	cbi	0x0b, 3	; 11
    lcd_write_4(theData);                           // write the upper 4-bits of the data
     696:	0e 94 35 03 	call	0x66a	; 0x66a <lcd_write_4>
    lcd_write_4(theData << 4);                      // write the lower 4-bits of the data
     69a:	8c 2f       	mov	r24, r28
     69c:	82 95       	swap	r24
     69e:	80 7f       	andi	r24, 0xF0	; 240
     6a0:	0e 94 35 03 	call	0x66a	; 0x66a <lcd_write_4>
}
     6a4:	cf 91       	pop	r28
     6a6:	08 95       	ret

000006a8 <lcd_write_string_4d>:
  Entry:    (theString) is the string to be displayed
  Exit:     no parameters
  Notes:    uses time delays rather than checking the busy flag
*/
void lcd_write_string_4d(uint8_t theString[])
{
     6a8:	0f 93       	push	r16
     6aa:	1f 93       	push	r17
     6ac:	cf 93       	push	r28
     6ae:	df 93       	push	r29
     6b0:	00 d0       	rcall	.+0      	; 0x6b2 <lcd_write_string_4d+0xa>
     6b2:	cd b7       	in	r28, 0x3d	; 61
     6b4:	de b7       	in	r29, 0x3e	; 62
     6b6:	8c 01       	movw	r16, r24
    volatile int i = 0;                             // character counter*/
     6b8:	1a 82       	std	Y+2, r1	; 0x02
     6ba:	19 82       	std	Y+1, r1	; 0x01
    while (theString[i] != 0)
     6bc:	e9 81       	ldd	r30, Y+1	; 0x01
     6be:	fa 81       	ldd	r31, Y+2	; 0x02
     6c0:	e8 0f       	add	r30, r24
     6c2:	f9 1f       	adc	r31, r25
     6c4:	80 81       	ld	r24, Z
     6c6:	88 23       	and	r24, r24
     6c8:	b9 f0       	breq	.+46     	; 0x6f8 <lcd_write_string_4d+0x50>
    {
        lcd_write_character_4d(theString[i]);
     6ca:	e9 81       	ldd	r30, Y+1	; 0x01
     6cc:	fa 81       	ldd	r31, Y+2	; 0x02
     6ce:	e0 0f       	add	r30, r16
     6d0:	f1 1f       	adc	r31, r17
     6d2:	80 81       	ld	r24, Z
     6d4:	0e 94 47 03 	call	0x68e	; 0x68e <lcd_write_character_4d>
        i++;
     6d8:	29 81       	ldd	r18, Y+1	; 0x01
     6da:	3a 81       	ldd	r19, Y+2	; 0x02
     6dc:	2f 5f       	subi	r18, 0xFF	; 255
     6de:	3f 4f       	sbci	r19, 0xFF	; 255
     6e0:	3a 83       	std	Y+2, r19	; 0x02
     6e2:	29 83       	std	Y+1, r18	; 0x01
     6e4:	84 e1       	ldi	r24, 0x14	; 20
     6e6:	8a 95       	dec	r24
     6e8:	f1 f7       	brne	.-4      	; 0x6e6 <lcd_write_string_4d+0x3e>
  Notes:    uses time delays rather than checking the busy flag
*/
void lcd_write_string_4d(uint8_t theString[])
{
    volatile int i = 0;                             // character counter*/
    while (theString[i] != 0)
     6ea:	e9 81       	ldd	r30, Y+1	; 0x01
     6ec:	fa 81       	ldd	r31, Y+2	; 0x02
     6ee:	e0 0f       	add	r30, r16
     6f0:	f1 1f       	adc	r31, r17
     6f2:	80 81       	ld	r24, Z
     6f4:	81 11       	cpse	r24, r1
     6f6:	e9 cf       	rjmp	.-46     	; 0x6ca <lcd_write_string_4d+0x22>
    {
        lcd_write_character_4d(theString[i]);
        i++;
        _delay_us(DELAY_INST);                              // 40 uS delay (min)
    }
}
     6f8:	0f 90       	pop	r0
     6fa:	0f 90       	pop	r0
     6fc:	df 91       	pop	r29
     6fe:	cf 91       	pop	r28
     700:	1f 91       	pop	r17
     702:	0f 91       	pop	r16
     704:	08 95       	ret

00000706 <lcd_write_instruction_4d>:
  Entry:    (theInstruction) is the information to be sent to the instruction register
  Exit:     no parameters
  Notes:    does not deal with RW (busy flag is not implemented)
*/
void lcd_write_instruction_4d(uint8_t theInstruction)
{
     706:	cf 93       	push	r28
     708:	c8 2f       	mov	r28, r24
    lcd_RS_port &= ~_BV(lcd_RS_bit);                // select the Instruction Register (RS low)
     70a:	5a 98       	cbi	0x0b, 2	; 11
    lcd_E_port &= ~_BV(lcd_E_bit);                  // make sure E is initially low
     70c:	5b 98       	cbi	0x0b, 3	; 11
    lcd_write_4(theInstruction);                    // write the upper 4-bits of the data
     70e:	0e 94 35 03 	call	0x66a	; 0x66a <lcd_write_4>
    lcd_write_4(theInstruction << 4);               // write the lower 4-bits of the data
     712:	8c 2f       	mov	r24, r28
     714:	82 95       	swap	r24
     716:	80 7f       	andi	r24, 0xF0	; 240
     718:	0e 94 35 03 	call	0x66a	; 0x66a <lcd_write_4>
}
     71c:	cf 91       	pop	r28
     71e:	08 95       	ret

00000720 <lcd_init_4d>:
	#else
		//round up by default
		__ticks_dc = (uint32_t)(ceil(fabs(__tmp)));
	#endif

	__builtin_avr_delay_cycles(__ticks_dc);
     720:	8f e0       	ldi	r24, 0x0F	; 15
     722:	97 e2       	ldi	r25, 0x27	; 39
     724:	01 97       	sbiw	r24, 0x01	; 1
     726:	f1 f7       	brne	.-4      	; 0x724 <lcd_init_4d+0x4>
     728:	00 c0       	rjmp	.+0      	; 0x72a <lcd_init_4d+0xa>
     72a:	00 00       	nop
//   this instruction can be sent on just the four available data lines and it will be interpreted
//   properly by the LCD controller.  The 'lcd_write_4' subroutine will accomplish this if the
//   control lines have previously been configured properly.

// Set up the RS and E lines for the 'lcd_write_4' subroutine.
    lcd_RS_port &= ~_BV(lcd_RS_bit);                // select the Instruction Register (RS low)
     72c:	5a 98       	cbi	0x0b, 2	; 11
    lcd_E_port &= ~_BV(lcd_E_bit);                  // make sure E is initially low
     72e:	5b 98       	cbi	0x0b, 3	; 11

// Reset the LCD controller
    lcd_write_4(lcd_FunctionReset);                 // first part of reset sequence
     730:	80 e3       	ldi	r24, 0x30	; 48
     732:	0e 94 35 03 	call	0x66a	; 0x66a <lcd_write_4>
     736:	81 ee       	ldi	r24, 0xE1	; 225
     738:	94 e0       	ldi	r25, 0x04	; 4
     73a:	01 97       	sbiw	r24, 0x01	; 1
     73c:	f1 f7       	brne	.-4      	; 0x73a <lcd_init_4d+0x1a>
     73e:	00 c0       	rjmp	.+0      	; 0x740 <lcd_init_4d+0x20>
     740:	00 00       	nop
    //_delay_ms(10);                                  // 4.1 mS delay (min)
	_delay_ms(5); // insoo modifed (Jul 14, 2017)

    lcd_write_4(lcd_FunctionReset);                 // second part of reset sequence
     742:	80 e3       	ldi	r24, 0x30	; 48
     744:	0e 94 35 03 	call	0x66a	; 0x66a <lcd_write_4>
     748:	8f e2       	ldi	r24, 0x2F	; 47
     74a:	95 e7       	ldi	r25, 0x75	; 117
     74c:	01 97       	sbiw	r24, 0x01	; 1
     74e:	f1 f7       	brne	.-4      	; 0x74c <lcd_init_4d+0x2c>
     750:	00 c0       	rjmp	.+0      	; 0x752 <lcd_init_4d+0x32>
     752:	00 00       	nop
    //_delay_us(200);                                 // 100uS delay (min)
	_delay_ms(120); // insoo modifed (Jul 14, 2017)

    lcd_write_4(lcd_FunctionReset);                 // third part of reset sequence
     754:	80 e3       	ldi	r24, 0x30	; 48
     756:	0e 94 35 03 	call	0x66a	; 0x66a <lcd_write_4>
     75a:	83 ec       	ldi	r24, 0xC3	; 195
     75c:	99 e0       	ldi	r25, 0x09	; 9
     75e:	01 97       	sbiw	r24, 0x01	; 1
     760:	f1 f7       	brne	.-4      	; 0x75e <lcd_init_4d+0x3e>
     762:	00 c0       	rjmp	.+0      	; 0x764 <lcd_init_4d+0x44>
     764:	00 00       	nop
// Preliminary Function Set instruction - used only to set the 4-bit mode.
// The number of lines or the font cannot be set at this time since the controller is still in the
//  8-bit mode, but the data transfer mode can be changed since this parameter is determined by one
//  of the upper four bits of the instruction.

    lcd_write_4(lcd_FunctionSet4bit);               // set 4-bit mode
     766:	88 e2       	ldi	r24, 0x28	; 40
     768:	0e 94 35 03 	call	0x66a	; 0x66a <lcd_write_4>
	#else
		//round up by default
		__ticks_dc = (uint32_t)(ceil(fabs(__tmp)));
	#endif

	__builtin_avr_delay_cycles(__ticks_dc);
     76c:	94 e1       	ldi	r25, 0x14	; 20
     76e:	9a 95       	dec	r25
     770:	f1 f7       	brne	.-4      	; 0x76e <lcd_init_4d+0x4e>
    _delay_us(DELAY_INST);                                  // 40uS delay (min)

// Function Set instruction
    lcd_write_instruction_4d(lcd_FunctionSet4bit);   // set mode, lines, and font
     772:	88 e2       	ldi	r24, 0x28	; 40
     774:	0e 94 83 03 	call	0x706	; 0x706 <lcd_write_instruction_4d>
     778:	84 e1       	ldi	r24, 0x14	; 20
     77a:	8a 95       	dec	r24
     77c:	f1 f7       	brne	.-4      	; 0x77a <lcd_init_4d+0x5a>
// The next three instructions are specified in the data sheet as part of the initialization routine,
//  so it is a good idea (but probably not necessary) to do them just as specified and then redo them
//  later if the application requires a different configuration.

// Display On/Off Control instruction
    lcd_write_instruction_4d(lcd_DisplayOff);        // turn display OFF
     77e:	88 e0       	ldi	r24, 0x08	; 8
     780:	0e 94 83 03 	call	0x706	; 0x706 <lcd_write_instruction_4d>
     784:	94 e1       	ldi	r25, 0x14	; 20
     786:	9a 95       	dec	r25
     788:	f1 f7       	brne	.-4      	; 0x786 <lcd_init_4d+0x66>
    _delay_us(DELAY_INST);                                  // 40uS delay (min)

// Clear Display instruction
    lcd_write_instruction_4d(lcd_Clear);             // clear display RAM
     78a:	81 e0       	ldi	r24, 0x01	; 1
     78c:	0e 94 83 03 	call	0x706	; 0x706 <lcd_write_instruction_4d>
	#else
		//round up by default
		__ticks_dc = (uint32_t)(ceil(fabs(__tmp)));
	#endif

	__builtin_avr_delay_cycles(__ticks_dc);
     790:	87 ee       	ldi	r24, 0xE7	; 231
     792:	93 e0       	ldi	r25, 0x03	; 3
     794:	01 97       	sbiw	r24, 0x01	; 1
     796:	f1 f7       	brne	.-4      	; 0x794 <lcd_init_4d+0x74>
     798:	00 c0       	rjmp	.+0      	; 0x79a <lcd_init_4d+0x7a>
     79a:	00 00       	nop
    _delay_ms(4);                                   // 1.64 mS delay (min)

// ; Entry Mode Set instruction
    lcd_write_instruction_4d(lcd_EntryMode);         // set desired shift characteristics
     79c:	86 e0       	ldi	r24, 0x06	; 6
     79e:	0e 94 83 03 	call	0x706	; 0x706 <lcd_write_instruction_4d>
	#else
		//round up by default
		__ticks_dc = (uint32_t)(ceil(fabs(__tmp)));
	#endif

	__builtin_avr_delay_cycles(__ticks_dc);
     7a2:	94 e1       	ldi	r25, 0x14	; 20
     7a4:	9a 95       	dec	r25
     7a6:	f1 f7       	brne	.-4      	; 0x7a4 <lcd_init_4d+0x84>

// This is the end of the LCD controller initialization as specified in the data sheet, but the display
//  has been left in the OFF condition.  This is a good time to turn the display back ON.

// Display On/Off Control instruction
    lcd_write_instruction_4d(lcd_DisplayOn);         // turn the display ON
     7a8:	8c e0       	ldi	r24, 0x0C	; 12
     7aa:	0e 94 83 03 	call	0x706	; 0x706 <lcd_write_instruction_4d>
     7ae:	84 e1       	ldi	r24, 0x14	; 20
     7b0:	8a 95       	dec	r24
     7b2:	f1 f7       	brne	.-4      	; 0x7b0 <lcd_init_4d+0x90>
     7b4:	08 95       	ret

000007b6 <LCD_BCDDigits>:

	itoa(humidity,str, 10);
	lcd_write_string_4d((uint8_t *)str);
	lcd_write_string_4d((uint8_t *)"        ");
	_delay_us(DELAY_INST);                                  // 40 uS delay (min)
}//lcd_showDHT11
     7b6:	cf 93       	push	r28
     7b8:	c8 2f       	mov	r28, r24
     7ba:	82 95       	swap	r24
     7bc:	8f 70       	andi	r24, 0x0F	; 15
     7be:	80 5d       	subi	r24, 0xD0	; 208
     7c0:	0e 94 47 03 	call	0x68e	; 0x68e <lcd_write_character_4d>
     7c4:	8c 2f       	mov	r24, r28
     7c6:	8f 70       	andi	r24, 0x0F	; 15
     7c8:	80 5d       	subi	r24, 0xD0	; 208
     7ca:	0e 94 47 03 	call	0x68e	; 0x68e <lcd_write_character_4d>
     7ce:	cf 91       	pop	r28
     7d0:	08 95       	ret

000007d2 <turnOnLCDBacklight>:
     7d2:	28 98       	cbi	0x05, 0	; 5
     7d4:	08 95       	ret

000007d6 <LCD_blankChar>:
     7d6:	cf 93       	push	r28
     7d8:	df 93       	push	r29
     7da:	88 23       	and	r24, r24
     7dc:	41 f0       	breq	.+16     	; 0x7ee <LCD_blankChar+0x18>
     7de:	d8 2f       	mov	r29, r24
     7e0:	c0 e0       	ldi	r28, 0x00	; 0
     7e2:	80 e2       	ldi	r24, 0x20	; 32
     7e4:	0e 94 47 03 	call	0x68e	; 0x68e <lcd_write_character_4d>
     7e8:	cf 5f       	subi	r28, 0xFF	; 255
     7ea:	cd 13       	cpse	r28, r29
     7ec:	fa cf       	rjmp	.-12     	; 0x7e2 <LCD_blankChar+0xc>
     7ee:	df 91       	pop	r29
     7f0:	cf 91       	pop	r28
     7f2:	08 95       	ret

000007f4 <turnOffLCDBacklight>:
     7f4:	28 9a       	sbi	0x05, 0	; 5
     7f6:	08 95       	ret

000007f8 <lcd_dispRealClock>:
     7f8:	cf 93       	push	r28
     7fa:	df 93       	push	r29
     7fc:	cd b7       	in	r28, 0x3d	; 61
     7fe:	de b7       	in	r29, 0x3e	; 62
     800:	6c 97       	sbiw	r28, 0x1c	; 28
     802:	0f b6       	in	r0, 0x3f	; 63
     804:	f8 94       	cli
     806:	de bf       	out	0x3e, r29	; 62
     808:	0f be       	out	0x3f, r0	; 63
     80a:	cd bf       	out	0x3d, r28	; 61
     80c:	80 e8       	ldi	r24, 0x80	; 128
     80e:	0e 94 83 03 	call	0x706	; 0x706 <lcd_write_instruction_4d>
     812:	84 e1       	ldi	r24, 0x14	; 20
     814:	8a 95       	dec	r24
     816:	f1 f7       	brne	.-4      	; 0x814 <lcd_dispRealClock+0x1c>
     818:	80 91 75 04 	lds	r24, 0x0475	; 0x800475 <hour>
     81c:	4a e0       	ldi	r20, 0x0A	; 10
     81e:	be 01       	movw	r22, r28
     820:	69 5f       	subi	r22, 0xF9	; 249
     822:	7f 4f       	sbci	r23, 0xFF	; 255
     824:	08 2e       	mov	r0, r24
     826:	00 0c       	add	r0, r0
     828:	99 0b       	sbc	r25, r25
     82a:	0e 94 c1 0a 	call	0x1582	; 0x1582 <__itoa_ncheck>
     82e:	80 91 74 04 	lds	r24, 0x0474	; 0x800474 <min>
     832:	4a e0       	ldi	r20, 0x0A	; 10
     834:	be 01       	movw	r22, r28
     836:	6c 5f       	subi	r22, 0xFC	; 252
     838:	7f 4f       	sbci	r23, 0xFF	; 255
     83a:	08 2e       	mov	r0, r24
     83c:	00 0c       	add	r0, r0
     83e:	99 0b       	sbc	r25, r25
     840:	0e 94 c1 0a 	call	0x1582	; 0x1582 <__itoa_ncheck>
     844:	80 91 73 04 	lds	r24, 0x0473	; 0x800473 <sec>
     848:	4a e0       	ldi	r20, 0x0A	; 10
     84a:	be 01       	movw	r22, r28
     84c:	6f 5f       	subi	r22, 0xFF	; 255
     84e:	7f 4f       	sbci	r23, 0xFF	; 255
     850:	08 2e       	mov	r0, r24
     852:	00 0c       	add	r0, r0
     854:	99 0b       	sbc	r25, r25
     856:	0e 94 c1 0a 	call	0x1582	; 0x1582 <__itoa_ncheck>
     85a:	ce 01       	movw	r24, r28
     85c:	07 96       	adiw	r24, 0x07	; 7
     85e:	0e 94 54 03 	call	0x6a8	; 0x6a8 <lcd_write_string_4d>
     862:	85 ef       	ldi	r24, 0xF5	; 245
     864:	93 e0       	ldi	r25, 0x03	; 3
     866:	0e 94 54 03 	call	0x6a8	; 0x6a8 <lcd_write_string_4d>
     86a:	ce 01       	movw	r24, r28
     86c:	04 96       	adiw	r24, 0x04	; 4
     86e:	0e 94 54 03 	call	0x6a8	; 0x6a8 <lcd_write_string_4d>
     872:	85 ef       	ldi	r24, 0xF5	; 245
     874:	93 e0       	ldi	r25, 0x03	; 3
     876:	0e 94 54 03 	call	0x6a8	; 0x6a8 <lcd_write_string_4d>
     87a:	ce 01       	movw	r24, r28
     87c:	01 96       	adiw	r24, 0x01	; 1
     87e:	0e 94 54 03 	call	0x6a8	; 0x6a8 <lcd_write_string_4d>
     882:	83 ee       	ldi	r24, 0xE3	; 227
     884:	93 e0       	ldi	r25, 0x03	; 3
     886:	0e 94 54 03 	call	0x6a8	; 0x6a8 <lcd_write_string_4d>
     88a:	84 e1       	ldi	r24, 0x14	; 20
     88c:	8a 95       	dec	r24
     88e:	f1 f7       	brne	.-4      	; 0x88c <lcd_dispRealClock+0x94>
     890:	80 ec       	ldi	r24, 0xC0	; 192
     892:	0e 94 83 03 	call	0x706	; 0x706 <lcd_write_instruction_4d>
     896:	84 e1       	ldi	r24, 0x14	; 20
     898:	8a 95       	dec	r24
     89a:	f1 f7       	brne	.-4      	; 0x898 <lcd_dispRealClock+0xa0>
     89c:	80 91 72 04 	lds	r24, 0x0472	; 0x800472 <year>
     8a0:	4a e0       	ldi	r20, 0x0A	; 10
     8a2:	be 01       	movw	r22, r28
     8a4:	66 5f       	subi	r22, 0xF6	; 246
     8a6:	7f 4f       	sbci	r23, 0xFF	; 255
     8a8:	08 2e       	mov	r0, r24
     8aa:	00 0c       	add	r0, r0
     8ac:	99 0b       	sbc	r25, r25
     8ae:	0e 94 c1 0a 	call	0x1582	; 0x1582 <__itoa_ncheck>
     8b2:	80 91 71 04 	lds	r24, 0x0471	; 0x800471 <month>
     8b6:	4a e0       	ldi	r20, 0x0A	; 10
     8b8:	be 01       	movw	r22, r28
     8ba:	63 5f       	subi	r22, 0xF3	; 243
     8bc:	7f 4f       	sbci	r23, 0xFF	; 255
     8be:	08 2e       	mov	r0, r24
     8c0:	00 0c       	add	r0, r0
     8c2:	99 0b       	sbc	r25, r25
     8c4:	0e 94 c1 0a 	call	0x1582	; 0x1582 <__itoa_ncheck>
     8c8:	80 91 70 04 	lds	r24, 0x0470	; 0x800470 <date>
     8cc:	4a e0       	ldi	r20, 0x0A	; 10
     8ce:	be 01       	movw	r22, r28
     8d0:	60 5f       	subi	r22, 0xF0	; 240
     8d2:	7f 4f       	sbci	r23, 0xFF	; 255
     8d4:	08 2e       	mov	r0, r24
     8d6:	00 0c       	add	r0, r0
     8d8:	99 0b       	sbc	r25, r25
     8da:	0e 94 c1 0a 	call	0x1582	; 0x1582 <__itoa_ncheck>
     8de:	ce 01       	movw	r24, r28
     8e0:	0a 96       	adiw	r24, 0x0a	; 10
     8e2:	0e 94 54 03 	call	0x6a8	; 0x6a8 <lcd_write_string_4d>
     8e6:	8f ee       	ldi	r24, 0xEF	; 239
     8e8:	93 e0       	ldi	r25, 0x03	; 3
     8ea:	0e 94 54 03 	call	0x6a8	; 0x6a8 <lcd_write_string_4d>
     8ee:	ce 01       	movw	r24, r28
     8f0:	0d 96       	adiw	r24, 0x0d	; 13
     8f2:	0e 94 54 03 	call	0x6a8	; 0x6a8 <lcd_write_string_4d>
     8f6:	8f ee       	ldi	r24, 0xEF	; 239
     8f8:	93 e0       	ldi	r25, 0x03	; 3
     8fa:	0e 94 54 03 	call	0x6a8	; 0x6a8 <lcd_write_string_4d>
     8fe:	ce 01       	movw	r24, r28
     900:	40 96       	adiw	r24, 0x10	; 16
     902:	0e 94 54 03 	call	0x6a8	; 0x6a8 <lcd_write_string_4d>
     906:	8d ee       	ldi	r24, 0xED	; 237
     908:	93 e0       	ldi	r25, 0x03	; 3
     90a:	0e 94 54 03 	call	0x6a8	; 0x6a8 <lcd_write_string_4d>
     90e:	e0 91 6f 04 	lds	r30, 0x046F	; 0x80046f <day>
     912:	8e 2f       	mov	r24, r30
     914:	ee 0f       	add	r30, r30
     916:	99 0b       	sbc	r25, r25
     918:	aa 0b       	sbc	r26, r26
     91a:	bb 0b       	sbc	r27, r27
     91c:	87 30       	cpi	r24, 0x07	; 7
     91e:	91 05       	cpc	r25, r1
     920:	08 f0       	brcs	.+2      	; 0x924 <__stack+0x25>
     922:	43 c0       	rjmp	.+134    	; 0x9aa <__stack+0xab>
     924:	fc 01       	movw	r30, r24
     926:	e0 5c       	subi	r30, 0xC0	; 192
     928:	ff 4f       	sbci	r31, 0xFF	; 255
     92a:	0c 94 32 0a 	jmp	0x1464	; 0x1464 <__tablejump2__>
     92e:	83 e5       	ldi	r24, 0x53	; 83
     930:	95 e7       	ldi	r25, 0x75	; 117
     932:	ae e6       	ldi	r26, 0x6E	; 110
     934:	b0 e0       	ldi	r27, 0x00	; 0
     936:	8b 8b       	std	Y+19, r24	; 0x13
     938:	9c 8b       	std	Y+20, r25	; 0x14
     93a:	ad 8b       	std	Y+21, r26	; 0x15
     93c:	be 8b       	std	Y+22, r27	; 0x16
     93e:	35 c0       	rjmp	.+106    	; 0x9aa <__stack+0xab>
     940:	8d e4       	ldi	r24, 0x4D	; 77
     942:	9f e6       	ldi	r25, 0x6F	; 111
     944:	ae e6       	ldi	r26, 0x6E	; 110
     946:	b0 e0       	ldi	r27, 0x00	; 0
     948:	8b 8b       	std	Y+19, r24	; 0x13
     94a:	9c 8b       	std	Y+20, r25	; 0x14
     94c:	ad 8b       	std	Y+21, r26	; 0x15
     94e:	be 8b       	std	Y+22, r27	; 0x16
     950:	2c c0       	rjmp	.+88     	; 0x9aa <__stack+0xab>
     952:	84 e5       	ldi	r24, 0x54	; 84
     954:	95 e7       	ldi	r25, 0x75	; 117
     956:	a5 e6       	ldi	r26, 0x65	; 101
     958:	b0 e0       	ldi	r27, 0x00	; 0
     95a:	8b 8b       	std	Y+19, r24	; 0x13
     95c:	9c 8b       	std	Y+20, r25	; 0x14
     95e:	ad 8b       	std	Y+21, r26	; 0x15
     960:	be 8b       	std	Y+22, r27	; 0x16
     962:	23 c0       	rjmp	.+70     	; 0x9aa <__stack+0xab>
     964:	87 e5       	ldi	r24, 0x57	; 87
     966:	95 e6       	ldi	r25, 0x65	; 101
     968:	a4 e6       	ldi	r26, 0x64	; 100
     96a:	b0 e0       	ldi	r27, 0x00	; 0
     96c:	8b 8b       	std	Y+19, r24	; 0x13
     96e:	9c 8b       	std	Y+20, r25	; 0x14
     970:	ad 8b       	std	Y+21, r26	; 0x15
     972:	be 8b       	std	Y+22, r27	; 0x16
     974:	1a c0       	rjmp	.+52     	; 0x9aa <__stack+0xab>
     976:	84 e5       	ldi	r24, 0x54	; 84
     978:	98 e6       	ldi	r25, 0x68	; 104
     97a:	a5 e7       	ldi	r26, 0x75	; 117
     97c:	b0 e0       	ldi	r27, 0x00	; 0
     97e:	8b 8b       	std	Y+19, r24	; 0x13
     980:	9c 8b       	std	Y+20, r25	; 0x14
     982:	ad 8b       	std	Y+21, r26	; 0x15
     984:	be 8b       	std	Y+22, r27	; 0x16
     986:	11 c0       	rjmp	.+34     	; 0x9aa <__stack+0xab>
     988:	86 e4       	ldi	r24, 0x46	; 70
     98a:	92 e7       	ldi	r25, 0x72	; 114
     98c:	a9 e6       	ldi	r26, 0x69	; 105
     98e:	b0 e0       	ldi	r27, 0x00	; 0
     990:	8b 8b       	std	Y+19, r24	; 0x13
     992:	9c 8b       	std	Y+20, r25	; 0x14
     994:	ad 8b       	std	Y+21, r26	; 0x15
     996:	be 8b       	std	Y+22, r27	; 0x16
     998:	08 c0       	rjmp	.+16     	; 0x9aa <__stack+0xab>
     99a:	83 e5       	ldi	r24, 0x53	; 83
     99c:	91 e6       	ldi	r25, 0x61	; 97
     99e:	a4 e7       	ldi	r26, 0x74	; 116
     9a0:	b0 e0       	ldi	r27, 0x00	; 0
     9a2:	8b 8b       	std	Y+19, r24	; 0x13
     9a4:	9c 8b       	std	Y+20, r25	; 0x14
     9a6:	ad 8b       	std	Y+21, r26	; 0x15
     9a8:	be 8b       	std	Y+22, r27	; 0x16
     9aa:	ce 01       	movw	r24, r28
     9ac:	43 96       	adiw	r24, 0x13	; 19
     9ae:	0e 94 54 03 	call	0x6a8	; 0x6a8 <lcd_write_string_4d>
     9b2:	89 ee       	ldi	r24, 0xE9	; 233
     9b4:	93 e0       	ldi	r25, 0x03	; 3
     9b6:	0e 94 54 03 	call	0x6a8	; 0x6a8 <lcd_write_string_4d>
     9ba:	84 e1       	ldi	r24, 0x14	; 20
     9bc:	8a 95       	dec	r24
     9be:	f1 f7       	brne	.-4      	; 0x9bc <__stack+0xbd>
     9c0:	6c 96       	adiw	r28, 0x1c	; 28
     9c2:	0f b6       	in	r0, 0x3f	; 63
     9c4:	f8 94       	cli
     9c6:	de bf       	out	0x3e, r29	; 62
     9c8:	0f be       	out	0x3f, r0	; 63
     9ca:	cd bf       	out	0x3d, r28	; 61
     9cc:	df 91       	pop	r29
     9ce:	cf 91       	pop	r28
     9d0:	08 95       	ret

000009d2 <lcd_dispAccumulatedTime>:
     9d2:	cf 93       	push	r28
     9d4:	df 93       	push	r29
     9d6:	cd b7       	in	r28, 0x3d	; 61
     9d8:	de b7       	in	r29, 0x3e	; 62
     9da:	29 97       	sbiw	r28, 0x09	; 9
     9dc:	0f b6       	in	r0, 0x3f	; 63
     9de:	f8 94       	cli
     9e0:	de bf       	out	0x3e, r29	; 62
     9e2:	0f be       	out	0x3f, r0	; 63
     9e4:	cd bf       	out	0x3d, r28	; 61
     9e6:	80 ec       	ldi	r24, 0xC0	; 192
     9e8:	0e 94 83 03 	call	0x706	; 0x706 <lcd_write_instruction_4d>
     9ec:	84 e1       	ldi	r24, 0x14	; 20
     9ee:	8a 95       	dec	r24
     9f0:	f1 f7       	brne	.-4      	; 0x9ee <lcd_dispAccumulatedTime+0x1c>
     9f2:	80 91 6e 04 	lds	r24, 0x046E	; 0x80046e <accumulatedHour>
     9f6:	4a e0       	ldi	r20, 0x0A	; 10
     9f8:	be 01       	movw	r22, r28
     9fa:	69 5f       	subi	r22, 0xF9	; 249
     9fc:	7f 4f       	sbci	r23, 0xFF	; 255
     9fe:	08 2e       	mov	r0, r24
     a00:	00 0c       	add	r0, r0
     a02:	99 0b       	sbc	r25, r25
     a04:	0e 94 c1 0a 	call	0x1582	; 0x1582 <__itoa_ncheck>
     a08:	80 91 6d 04 	lds	r24, 0x046D	; 0x80046d <accumulatedMin>
     a0c:	4a e0       	ldi	r20, 0x0A	; 10
     a0e:	be 01       	movw	r22, r28
     a10:	6c 5f       	subi	r22, 0xFC	; 252
     a12:	7f 4f       	sbci	r23, 0xFF	; 255
     a14:	08 2e       	mov	r0, r24
     a16:	00 0c       	add	r0, r0
     a18:	99 0b       	sbc	r25, r25
     a1a:	0e 94 c1 0a 	call	0x1582	; 0x1582 <__itoa_ncheck>
     a1e:	80 91 6c 04 	lds	r24, 0x046C	; 0x80046c <accumulatedSec>
     a22:	4a e0       	ldi	r20, 0x0A	; 10
     a24:	be 01       	movw	r22, r28
     a26:	6f 5f       	subi	r22, 0xFF	; 255
     a28:	7f 4f       	sbci	r23, 0xFF	; 255
     a2a:	08 2e       	mov	r0, r24
     a2c:	00 0c       	add	r0, r0
     a2e:	99 0b       	sbc	r25, r25
     a30:	0e 94 c1 0a 	call	0x1582	; 0x1582 <__itoa_ncheck>
     a34:	ce 01       	movw	r24, r28
     a36:	07 96       	adiw	r24, 0x07	; 7
     a38:	0e 94 54 03 	call	0x6a8	; 0x6a8 <lcd_write_string_4d>
     a3c:	85 ef       	ldi	r24, 0xF5	; 245
     a3e:	93 e0       	ldi	r25, 0x03	; 3
     a40:	0e 94 54 03 	call	0x6a8	; 0x6a8 <lcd_write_string_4d>
     a44:	ce 01       	movw	r24, r28
     a46:	04 96       	adiw	r24, 0x04	; 4
     a48:	0e 94 54 03 	call	0x6a8	; 0x6a8 <lcd_write_string_4d>
     a4c:	85 ef       	ldi	r24, 0xF5	; 245
     a4e:	93 e0       	ldi	r25, 0x03	; 3
     a50:	0e 94 54 03 	call	0x6a8	; 0x6a8 <lcd_write_string_4d>
     a54:	ce 01       	movw	r24, r28
     a56:	01 96       	adiw	r24, 0x01	; 1
     a58:	0e 94 54 03 	call	0x6a8	; 0x6a8 <lcd_write_string_4d>
     a5c:	87 ee       	ldi	r24, 0xE7	; 231
     a5e:	93 e0       	ldi	r25, 0x03	; 3
     a60:	0e 94 54 03 	call	0x6a8	; 0x6a8 <lcd_write_string_4d>
     a64:	84 e1       	ldi	r24, 0x14	; 20
     a66:	8a 95       	dec	r24
     a68:	f1 f7       	brne	.-4      	; 0xa66 <lcd_dispAccumulatedTime+0x94>
     a6a:	29 96       	adiw	r28, 0x09	; 9
     a6c:	0f b6       	in	r0, 0x3f	; 63
     a6e:	f8 94       	cli
     a70:	de bf       	out	0x3e, r29	; 62
     a72:	0f be       	out	0x3f, r0	; 63
     a74:	cd bf       	out	0x3d, r28	; 61
     a76:	df 91       	pop	r29
     a78:	cf 91       	pop	r28
     a7a:	08 95       	ret

00000a7c <lcd_dispProgInfo>:

//-----------------------------------
void lcd_dispProgInfo()
{
	// set cursor to start of first line
	lcd_write_instruction_4d(lcd_SetCursor | lcd_LineOne);
     a7c:	80 e8       	ldi	r24, 0x80	; 128
     a7e:	0e 94 83 03 	call	0x706	; 0x706 <lcd_write_instruction_4d>
     a82:	24 e1       	ldi	r18, 0x14	; 20
     a84:	2a 95       	dec	r18
     a86:	f1 f7       	brne	.-4      	; 0xa84 <lcd_dispProgInfo+0x8>
	_delay_us(DELAY_INST);                                  // 40 uS delay (min)
	// display the first line of information
	lcd_write_string_4d(program_author);
     a88:	8f e3       	ldi	r24, 0x3F	; 63
     a8a:	91 e0       	ldi	r25, 0x01	; 1
     a8c:	0e 94 54 03 	call	0x6a8	; 0x6a8 <lcd_write_string_4d>

	// set cursor to start of second line
	lcd_write_instruction_4d(lcd_SetCursor | lcd_LineTwo);
     a90:	80 ec       	ldi	r24, 0xC0	; 192
     a92:	0e 94 83 03 	call	0x706	; 0x706 <lcd_write_instruction_4d>
     a96:	84 e1       	ldi	r24, 0x14	; 20
     a98:	8a 95       	dec	r24
     a9a:	f1 f7       	brne	.-4      	; 0xa98 <lcd_dispProgInfo+0x1c>
	_delay_us(DELAY_INST);                                  // 40 uS delay (min)

	// display the second line of information
	lcd_write_string_4d(program_version);
     a9c:	80 e3       	ldi	r24, 0x30	; 48
     a9e:	91 e0       	ldi	r25, 0x01	; 1
     aa0:	0e 94 54 03 	call	0x6a8	; 0x6a8 <lcd_write_string_4d>
	#else
		//round up by default
		__ticks_dc = (uint32_t)(ceil(fabs(__tmp)));
	#endif

	__builtin_avr_delay_cycles(__ticks_dc);
     aa4:	9f e3       	ldi	r25, 0x3F	; 63
     aa6:	2d e0       	ldi	r18, 0x0D	; 13
     aa8:	83 e0       	ldi	r24, 0x03	; 3
     aaa:	91 50       	subi	r25, 0x01	; 1
     aac:	20 40       	sbci	r18, 0x00	; 0
     aae:	80 40       	sbci	r24, 0x00	; 0
     ab0:	e1 f7       	brne	.-8      	; 0xaaa <lcd_dispProgInfo+0x2e>
     ab2:	00 c0       	rjmp	.+0      	; 0xab4 <lcd_dispProgInfo+0x38>
     ab4:	00 00       	nop

	_delay_ms(1000);

	// set cursor to start of second line
	lcd_write_instruction_4d(lcd_SetCursor | lcd_LineTwo);
     ab6:	80 ec       	ldi	r24, 0xC0	; 192
     ab8:	0e 94 83 03 	call	0x706	; 0x706 <lcd_write_instruction_4d>
	#else
		//round up by default
		__ticks_dc = (uint32_t)(ceil(fabs(__tmp)));
	#endif

	__builtin_avr_delay_cycles(__ticks_dc);
     abc:	94 e1       	ldi	r25, 0x14	; 20
     abe:	9a 95       	dec	r25
     ac0:	f1 f7       	brne	.-4      	; 0xabe <lcd_dispProgInfo+0x42>
	_delay_us(DELAY_INST);                                  // 40 uS delay (min)

	// display the second line of information
	lcd_write_string_4d(program_date);
     ac2:	81 e2       	ldi	r24, 0x21	; 33
     ac4:	91 e0       	ldi	r25, 0x01	; 1
     ac6:	0e 94 54 03 	call	0x6a8	; 0x6a8 <lcd_write_string_4d>
	#else
		//round up by default
		__ticks_dc = (uint32_t)(ceil(fabs(__tmp)));
	#endif

	__builtin_avr_delay_cycles(__ticks_dc);
     aca:	2f e7       	ldi	r18, 0x7F	; 127
     acc:	8a e1       	ldi	r24, 0x1A	; 26
     ace:	96 e0       	ldi	r25, 0x06	; 6
     ad0:	21 50       	subi	r18, 0x01	; 1
     ad2:	80 40       	sbci	r24, 0x00	; 0
     ad4:	90 40       	sbci	r25, 0x00	; 0
     ad6:	e1 f7       	brne	.-8      	; 0xad0 <lcd_dispProgInfo+0x54>
     ad8:	00 c0       	rjmp	.+0      	; 0xada <lcd_dispProgInfo+0x5e>
     ada:	00 00       	nop
     adc:	08 95       	ret

00000ade <lcd_dispMenu>:

//-----------------------------------
void lcd_dispMenu()
{
	// set cursor to start of first line
	lcd_write_instruction_4d(lcd_SetCursor | lcd_LineOne);
     ade:	80 e8       	ldi	r24, 0x80	; 128
     ae0:	0e 94 83 03 	call	0x706	; 0x706 <lcd_write_instruction_4d>
	#else
		//round up by default
		__ticks_dc = (uint32_t)(ceil(fabs(__tmp)));
	#endif

	__builtin_avr_delay_cycles(__ticks_dc);
     ae4:	24 e1       	ldi	r18, 0x14	; 20
     ae6:	2a 95       	dec	r18
     ae8:	f1 f7       	brne	.-4      	; 0xae6 <lcd_dispMenu+0x8>
	_delay_us(DELAY_INST);                                  // 40 uS delay (min)
	// display the first line of information
	lcd_write_string_4d(menu_str1);
     aea:	80 e1       	ldi	r24, 0x10	; 16
     aec:	91 e0       	ldi	r25, 0x01	; 1
     aee:	0e 94 54 03 	call	0x6a8	; 0x6a8 <lcd_write_string_4d>

	// set cursor to start of second line
	lcd_write_instruction_4d(lcd_SetCursor | lcd_LineTwo);
     af2:	80 ec       	ldi	r24, 0xC0	; 192
     af4:	0e 94 83 03 	call	0x706	; 0x706 <lcd_write_instruction_4d>
     af8:	84 e1       	ldi	r24, 0x14	; 20
     afa:	8a 95       	dec	r24
     afc:	f1 f7       	brne	.-4      	; 0xafa <lcd_dispMenu+0x1c>
	_delay_us(DELAY_INST);                                  // 40 uS delay (min)

	// display the second line of information
	lcd_write_string_4d(menu_str2);
     afe:	80 e0       	ldi	r24, 0x00	; 0
     b00:	91 e0       	ldi	r25, 0x01	; 1
     b02:	0e 94 54 03 	call	0x6a8	; 0x6a8 <lcd_write_string_4d>
	#else
		//round up by default
		__ticks_dc = (uint32_t)(ceil(fabs(__tmp)));
	#endif

	__builtin_avr_delay_cycles(__ticks_dc);
     b06:	9f eb       	ldi	r25, 0xBF	; 191
     b08:	27 e2       	ldi	r18, 0x27	; 39
     b0a:	89 e0       	ldi	r24, 0x09	; 9
     b0c:	91 50       	subi	r25, 0x01	; 1
     b0e:	20 40       	sbci	r18, 0x00	; 0
     b10:	80 40       	sbci	r24, 0x00	; 0
     b12:	e1 f7       	brne	.-8      	; 0xb0c <lcd_dispMenu+0x2e>
     b14:	00 c0       	rjmp	.+0      	; 0xb16 <lcd_dispMenu+0x38>
     b16:	00 00       	nop
     b18:	08 95       	ret

00000b1a <lcd_dispWords>:

}//lcd_dispMenu

//-----------------------------------
void lcd_dispWords(uint8_t i)
{
     b1a:	ef 92       	push	r14
     b1c:	ff 92       	push	r15
     b1e:	0f 93       	push	r16
     b20:	1f 93       	push	r17
     b22:	cf 93       	push	r28
     b24:	df 93       	push	r29
     b26:	e8 2e       	mov	r14, r24
	uint8_t n, wordLen;
	uint8_t *words0=0, *words1=0;
	//uint8_t str[3];
	// set cursor to start of first line
	lcd_write_instruction_4d(lcd_SetCursor | lcd_LineOne);
     b28:	80 e8       	ldi	r24, 0x80	; 128
     b2a:	0e 94 83 03 	call	0x706	; 0x706 <lcd_write_instruction_4d>
	#else
		//round up by default
		__ticks_dc = (uint32_t)(ceil(fabs(__tmp)));
	#endif

	__builtin_avr_delay_cycles(__ticks_dc);
     b2e:	24 e1       	ldi	r18, 0x14	; 20
     b30:	2a 95       	dec	r18
     b32:	f1 f7       	brne	.-4      	; 0xb30 <lcd_dispWords+0x16>
	_delay_us(DELAY_INST);                                  // 40 uS delay (min)
	// display the first line of information
	//words = malloc(320);
	switch (min%4)
     b34:	90 91 74 04 	lds	r25, 0x0474	; 0x800474 <min>
     b38:	93 78       	andi	r25, 0x83	; 131
     b3a:	1c f4       	brge	.+6      	; 0xb42 <lcd_dispWords+0x28>
     b3c:	91 50       	subi	r25, 0x01	; 1
     b3e:	9c 6f       	ori	r25, 0xFC	; 252
     b40:	9f 5f       	subi	r25, 0xFF	; 255
     b42:	99 23       	and	r25, r25
     b44:	ec f0       	brlt	.+58     	; 0xb80 <lcd_dispWords+0x66>
     b46:	92 30       	cpi	r25, 0x02	; 2
     b48:	1c f0       	brlt	.+6      	; 0xb50 <lcd_dispWords+0x36>
     b4a:	94 30       	cpi	r25, 0x04	; 4
     b4c:	6c f0       	brlt	.+26     	; 0xb68 <lcd_dispWords+0x4e>
     b4e:	18 c0       	rjmp	.+48     	; 0xb80 <lcd_dispWords+0x66>
	{
		case 0:
		case 1:
		words0 = words000[i][0];
     b50:	30 e2       	ldi	r19, 0x20	; 32
     b52:	e3 9e       	mul	r14, r19
     b54:	c0 01       	movw	r24, r0
     b56:	11 24       	eor	r1, r1
     b58:	ec 01       	movw	r28, r24
     b5a:	c2 57       	subi	r28, 0x72	; 114
     b5c:	dd 4f       	sbci	r29, 0xFD	; 253
		words1 = words000[i][1];
     b5e:	9c 01       	movw	r18, r24
     b60:	22 56       	subi	r18, 0x62	; 98
     b62:	3d 4f       	sbci	r19, 0xFD	; 253
     b64:	79 01       	movw	r14, r18
		break;
     b66:	10 c0       	rjmp	.+32     	; 0xb88 <lcd_dispWords+0x6e>
		case 2:
		case 3:
		words0 = words001[i][0];;
     b68:	30 e2       	ldi	r19, 0x20	; 32
     b6a:	e3 9e       	mul	r14, r19
     b6c:	c0 01       	movw	r24, r0
     b6e:	11 24       	eor	r1, r1
     b70:	ec 01       	movw	r28, r24
     b72:	c2 5b       	subi	r28, 0xB2	; 178
     b74:	de 4f       	sbci	r29, 0xFE	; 254
		words1 = words001[i][1];
     b76:	9c 01       	movw	r18, r24
     b78:	22 5a       	subi	r18, 0xA2	; 162
     b7a:	3e 4f       	sbci	r19, 0xFE	; 254
     b7c:	79 01       	movw	r14, r18
		break;
     b7e:	04 c0       	rjmp	.+8      	; 0xb88 <lcd_dispWords+0x6e>

//-----------------------------------
void lcd_dispWords(uint8_t i)
{
	uint8_t n, wordLen;
	uint8_t *words0=0, *words1=0;
     b80:	e1 2c       	mov	r14, r1
     b82:	f1 2c       	mov	r15, r1
     b84:	c0 e0       	ldi	r28, 0x00	; 0
     b86:	d0 e0       	ldi	r29, 0x00	; 0
		words0 = words001[i][0];;
		words1 = words001[i][1];
		break;
	}
	//lcd_write_string_4d(words000[i][0]);
	lcd_write_string_4d(words0);
     b88:	ce 01       	movw	r24, r28
     b8a:	0e 94 54 03 	call	0x6a8	; 0x6a8 <lcd_write_string_4d>
	//wordLen = strlen((char *)words000[i][0]);
	wordLen = strlen((char *)words0);
     b8e:	fe 01       	movw	r30, r28
     b90:	01 90       	ld	r0, Z+
     b92:	00 20       	and	r0, r0
     b94:	e9 f7       	brne	.-6      	; 0xb90 <lcd_dispWords+0x76>
     b96:	31 97       	sbiw	r30, 0x01	; 1
     b98:	ec 1b       	sub	r30, r28
     b9a:	fd 0b       	sbc	r31, r29
	for (n=0; n<(LCD_MAXCOL-wordLen); n++)
     b9c:	00 e1       	ldi	r16, 0x10	; 16
     b9e:	10 e0       	ldi	r17, 0x00	; 0
     ba0:	0e 1b       	sub	r16, r30
     ba2:	11 09       	sbc	r17, r1
     ba4:	10 16       	cp	r1, r16
     ba6:	11 06       	cpc	r1, r17
     ba8:	54 f4       	brge	.+20     	; 0xbbe <lcd_dispWords+0xa4>
     baa:	c0 e0       	ldi	r28, 0x00	; 0
	lcd_write_character_4d((uint8_t)0x20);
     bac:	80 e2       	ldi	r24, 0x20	; 32
     bae:	0e 94 47 03 	call	0x68e	; 0x68e <lcd_write_character_4d>
	}
	//lcd_write_string_4d(words000[i][0]);
	lcd_write_string_4d(words0);
	//wordLen = strlen((char *)words000[i][0]);
	wordLen = strlen((char *)words0);
	for (n=0; n<(LCD_MAXCOL-wordLen); n++)
     bb2:	cf 5f       	subi	r28, 0xFF	; 255
     bb4:	2c 2f       	mov	r18, r28
     bb6:	30 e0       	ldi	r19, 0x00	; 0
     bb8:	20 17       	cp	r18, r16
     bba:	31 07       	cpc	r19, r17
     bbc:	bc f3       	brlt	.-18     	; 0xbac <lcd_dispWords+0x92>
	lcd_write_character_4d((uint8_t)0x20);
	//lcd_write_string_4d(program_author);

	// set cursor to start of second line
	lcd_write_instruction_4d(lcd_SetCursor | lcd_LineTwo);
     bbe:	80 ec       	ldi	r24, 0xC0	; 192
     bc0:	0e 94 83 03 	call	0x706	; 0x706 <lcd_write_instruction_4d>
     bc4:	34 e1       	ldi	r19, 0x14	; 20
     bc6:	3a 95       	dec	r19
     bc8:	f1 f7       	brne	.-4      	; 0xbc6 <lcd_dispWords+0xac>
	_delay_us(DELAY_INST);                                  // 40 uS delay (min)

	// display the second line of information
	//lcd_write_string_4d(words000[i][1]);
	lcd_write_string_4d(words1);
     bca:	c7 01       	movw	r24, r14
     bcc:	0e 94 54 03 	call	0x6a8	; 0x6a8 <lcd_write_string_4d>
	//utoa(sizeof(words000[0]), str, 10); //32
	//utoa(sizeof(words), str, 10); //?
	//utoa(strlen(words000[i][0]), str, 10);
	//lcd_write_string_4d(str);
	//wordLen = strlen((char *)words000[i][1]);
	wordLen = strlen((char *)words1);
     bd0:	f7 01       	movw	r30, r14
     bd2:	01 90       	ld	r0, Z+
     bd4:	00 20       	and	r0, r0
     bd6:	e9 f7       	brne	.-6      	; 0xbd2 <lcd_dispWords+0xb8>
     bd8:	31 97       	sbiw	r30, 0x01	; 1
     bda:	ee 19       	sub	r30, r14
     bdc:	ff 09       	sbc	r31, r15
	for (n=0; n<(LCD_MAXCOL-wordLen); n++)
     bde:	00 e1       	ldi	r16, 0x10	; 16
     be0:	10 e0       	ldi	r17, 0x00	; 0
     be2:	0e 1b       	sub	r16, r30
     be4:	11 09       	sbc	r17, r1
     be6:	10 16       	cp	r1, r16
     be8:	11 06       	cpc	r1, r17
     bea:	54 f4       	brge	.+20     	; 0xc00 <lcd_dispWords+0xe6>
     bec:	c0 e0       	ldi	r28, 0x00	; 0
	lcd_write_character_4d((uint8_t)0x20);
     bee:	80 e2       	ldi	r24, 0x20	; 32
     bf0:	0e 94 47 03 	call	0x68e	; 0x68e <lcd_write_character_4d>
	//utoa(sizeof(words), str, 10); //?
	//utoa(strlen(words000[i][0]), str, 10);
	//lcd_write_string_4d(str);
	//wordLen = strlen((char *)words000[i][1]);
	wordLen = strlen((char *)words1);
	for (n=0; n<(LCD_MAXCOL-wordLen); n++)
     bf4:	cf 5f       	subi	r28, 0xFF	; 255
     bf6:	8c 2f       	mov	r24, r28
     bf8:	90 e0       	ldi	r25, 0x00	; 0
     bfa:	80 17       	cp	r24, r16
     bfc:	91 07       	cpc	r25, r17
     bfe:	bc f3       	brlt	.-18     	; 0xbee <lcd_dispWords+0xd4>
	lcd_write_character_4d((uint8_t)0x20);
	//lcd_write_string_4d(program_date);

	//_delay_ms(2000);

}//lcd_dispWords
     c00:	df 91       	pop	r29
     c02:	cf 91       	pop	r28
     c04:	1f 91       	pop	r17
     c06:	0f 91       	pop	r16
     c08:	ff 90       	pop	r15
     c0a:	ef 90       	pop	r14
     c0c:	08 95       	ret

00000c0e <dispNotice>:
}//main

//-----------------------------------
void dispNotice()
{
	makePDasOutput();
     c0e:	0e 94 3f 08 	call	0x107e	; 0x107e <makePDasOutput>

	lcd_init_4d();
     c12:	0e 94 90 03 	call	0x720	; 0x720 <lcd_init_4d>
     c16:	89 ef       	ldi	r24, 0xF9	; 249
     c18:	90 e0       	ldi	r25, 0x00	; 0
     c1a:	01 97       	sbiw	r24, 0x01	; 1
     c1c:	f1 f7       	brne	.-4      	; 0xc1a <dispNotice+0xc>
     c1e:	00 c0       	rjmp	.+0      	; 0xc20 <dispNotice+0x12>
     c20:	00 00       	nop
	_delay_us(1000);                                  // 40 uS delay (min)

	lcd_write_instruction_4d(lcd_SetCursor | lcd_LineOne);
     c22:	80 e8       	ldi	r24, 0x80	; 128
     c24:	0e 94 83 03 	call	0x706	; 0x706 <lcd_write_instruction_4d>
     c28:	94 e1       	ldi	r25, 0x14	; 20
     c2a:	9a 95       	dec	r25
     c2c:	f1 f7       	brne	.-4      	; 0xc2a <dispNotice+0x1c>
	_delay_us(DELAY_INST);                                  // 40 uS delay (min)
	lcd_write_string_4d((uint8_t *)"Ready to run!");
     c2e:	81 e0       	ldi	r24, 0x01	; 1
     c30:	94 e0       	ldi	r25, 0x04	; 4
     c32:	0e 94 54 03 	call	0x6a8	; 0x6a8 <lcd_write_string_4d>
	lcd_write_instruction_4d(lcd_SetCursor | lcd_LineTwo);
     c36:	80 ec       	ldi	r24, 0xC0	; 192
     c38:	0e 94 83 03 	call	0x706	; 0x706 <lcd_write_instruction_4d>
     c3c:	24 e1       	ldi	r18, 0x14	; 20
     c3e:	2a 95       	dec	r18
     c40:	f1 f7       	brne	.-4      	; 0xc3e <dispNotice+0x30>
	_delay_us(DELAY_INST);                                  // 40 uS delay (min)
	lcd_write_string_4d((uint8_t *)"Now,sleep.Bye.");
     c42:	8f e0       	ldi	r24, 0x0F	; 15
     c44:	94 e0       	ldi	r25, 0x04	; 4
     c46:	0e 94 54 03 	call	0x6a8	; 0x6a8 <lcd_write_string_4d>
	#else
		//round up by default
		__ticks_dc = (uint32_t)(ceil(fabs(__tmp)));
	#endif

	__builtin_avr_delay_cycles(__ticks_dc);
     c4a:	8f eb       	ldi	r24, 0xBF	; 191
     c4c:	97 e2       	ldi	r25, 0x27	; 39
     c4e:	29 e0       	ldi	r18, 0x09	; 9
     c50:	81 50       	subi	r24, 0x01	; 1
     c52:	90 40       	sbci	r25, 0x00	; 0
     c54:	20 40       	sbci	r18, 0x00	; 0
     c56:	e1 f7       	brne	.-8      	; 0xc50 <dispNotice+0x42>
     c58:	00 c0       	rjmp	.+0      	; 0xc5a <dispNotice+0x4c>
     c5a:	00 00       	nop
	_delay_ms(3000);
	
	makePDasInput();
     c5c:	0e 94 5a 08 	call	0x10b4	; 0x10b4 <makePDasInput>
     c60:	08 95       	ret

00000c62 <main>:


//------------------------------------
int main()
{
    config();
     c62:	0e 94 7e 00 	call	0xfc	; 0xfc <config>
 
    initINT();//to make English Words go round
     c66:	0e 94 52 02 	call	0x4a4	; 0x4a4 <initINT>

	I2C_Init();
     c6a:	0e 94 a3 01 	call	0x346	; 0x346 <I2C_Init>
    parseCompileTime();
     c6e:	0e 94 54 06 	call	0xca8	; 0xca8 <parseCompileTime>
	
	//After call dispNotice(), sleep current remain rather high 680 uA
	//	otherwise, 230 uA
	//As of July 15, 2017, this function does not cause any further current draw than 0.2uA
	dispNotice(); 
     c72:	0e 94 07 06 	call	0xc0e	; 0xc0e <dispNotice>

    //lcd_dispRealClock();
	//lcd_dispProgInfo(); //LCD display program info
    // Use the Power Down sleep mode
    set_sleep_mode(SLEEP_MODE_PWR_DOWN);
     c76:	83 b7       	in	r24, 0x33	; 51
     c78:	81 7f       	andi	r24, 0xF1	; 241
     c7a:	84 60       	ori	r24, 0x04	; 4
     c7c:	83 bf       	out	0x33, r24	; 51

    // endless loop
    while(1)
    {
      // go to sleep and wait for interrupt...
      sleep_mode();
     c7e:	83 b7       	in	r24, 0x33	; 51
     c80:	81 60       	ori	r24, 0x01	; 1
     c82:	83 bf       	out	0x33, r24	; 51
     c84:	88 95       	sleep
     c86:	83 b7       	in	r24, 0x33	; 51
     c88:	8e 7f       	andi	r24, 0xFE	; 254
     c8a:	83 bf       	out	0x33, r24	; 51
      //_delay_ms(1000);
      //lcd_dispProgInfo();
      //_delay_ms(1000);

	  //testTimingOnDebugPin()
	      }
     c8c:	f8 cf       	rjmp	.-16     	; 0xc7e <main+0x1c>

00000c8e <calcDay>:
    calcDay();
}//parseCompileTime

void calcDay()
{
    day = (date - 17)%7;
     c8e:	80 91 70 04 	lds	r24, 0x0470	; 0x800470 <date>
     c92:	08 2e       	mov	r0, r24
     c94:	00 0c       	add	r0, r0
     c96:	99 0b       	sbc	r25, r25
     c98:	41 97       	sbiw	r24, 0x11	; 17
     c9a:	67 e0       	ldi	r22, 0x07	; 7
     c9c:	70 e0       	ldi	r23, 0x00	; 0
     c9e:	0e 94 1e 0a 	call	0x143c	; 0x143c <__divmodhi4>
     ca2:	80 93 6f 04 	sts	0x046F, r24	; 0x80046f <day>
     ca6:	08 95       	ret

00000ca8 <parseCompileTime>:
extern uint8_t year, month, date;
extern uint8_t monthEndDate, day;
*/

void parseCompileTime()
{
     ca8:	1f 93       	push	r17
     caa:	cf 93       	push	r28
     cac:	df 93       	push	r29
     cae:	cd b7       	in	r28, 0x3d	; 61
     cb0:	de b7       	in	r29, 0x3e	; 62
     cb2:	e4 97       	sbiw	r28, 0x34	; 52
     cb4:	0f b6       	in	r0, 0x3f	; 63
     cb6:	f8 94       	cli
     cb8:	de bf       	out	0x3e, r29	; 62
     cba:	0f be       	out	0x3f, r0	; 63
     cbc:	cd bf       	out	0x3d, r28	; 61
    char sTime[4][3];
    char sDate[4][10];
    uint8_t n=0;
    uint16_t yearLong;

    p = strtok(__TIME__,":");
     cbe:	65 ef       	ldi	r22, 0xF5	; 245
     cc0:	73 e0       	ldi	r23, 0x03	; 3
     cc2:	8e e1       	ldi	r24, 0x1E	; 30
     cc4:	94 e0       	ldi	r25, 0x04	; 4
     cc6:	0e 94 85 0a 	call	0x150a	; 0x150a <strtok>
     cca:	bc 01       	movw	r22, r24
    while (*p)
     ccc:	fc 01       	movw	r30, r24
     cce:	80 81       	ld	r24, Z
     cd0:	88 23       	and	r24, r24
     cd2:	e9 f0       	breq	.+58     	; 0xd0e <parseCompileTime+0x66>
     cd4:	20 e0       	ldi	r18, 0x00	; 0
    {
        strcpy((char *)&sTime[n++], p);
     cd6:	11 e0       	ldi	r17, 0x01	; 1
     cd8:	12 0f       	add	r17, r18
     cda:	30 e0       	ldi	r19, 0x00	; 0
     cdc:	c9 01       	movw	r24, r18
     cde:	88 0f       	add	r24, r24
     ce0:	99 1f       	adc	r25, r25
     ce2:	82 0f       	add	r24, r18
     ce4:	93 1f       	adc	r25, r19
     ce6:	21 e0       	ldi	r18, 0x01	; 1
     ce8:	30 e0       	ldi	r19, 0x00	; 0
     cea:	2c 0f       	add	r18, r28
     cec:	3d 1f       	adc	r19, r29
     cee:	82 0f       	add	r24, r18
     cf0:	93 1f       	adc	r25, r19
     cf2:	0e 94 93 0a 	call	0x1526	; 0x1526 <strcpy>
        p=strtok(NULL, ":");
     cf6:	65 ef       	ldi	r22, 0xF5	; 245
     cf8:	73 e0       	ldi	r23, 0x03	; 3
     cfa:	80 e0       	ldi	r24, 0x00	; 0
     cfc:	90 e0       	ldi	r25, 0x00	; 0
     cfe:	0e 94 85 0a 	call	0x150a	; 0x150a <strtok>
     d02:	bc 01       	movw	r22, r24
    uint16_t yearLong;

    p = strtok(__TIME__,":");
    while (*p)
    {
        strcpy((char *)&sTime[n++], p);
     d04:	21 2f       	mov	r18, r17
    char sDate[4][10];
    uint8_t n=0;
    uint16_t yearLong;

    p = strtok(__TIME__,":");
    while (*p)
     d06:	fc 01       	movw	r30, r24
     d08:	80 81       	ld	r24, Z
     d0a:	81 11       	cpse	r24, r1
     d0c:	e4 cf       	rjmp	.-56     	; 0xcd6 <parseCompileTime+0x2e>
    {
        strcpy((char *)&sTime[n++], p);
        p=strtok(NULL, ":");
    }
    hour=atoi(sTime[0]);
     d0e:	ce 01       	movw	r24, r28
     d10:	01 96       	adiw	r24, 0x01	; 1
     d12:	0e 94 67 0a 	call	0x14ce	; 0x14ce <atoi>
     d16:	80 93 75 04 	sts	0x0475, r24	; 0x800475 <hour>
    min=atoi(sTime[1]);
     d1a:	ce 01       	movw	r24, r28
     d1c:	04 96       	adiw	r24, 0x04	; 4
     d1e:	0e 94 67 0a 	call	0x14ce	; 0x14ce <atoi>
     d22:	80 93 74 04 	sts	0x0474, r24	; 0x800474 <min>
    //give some delay (8 seconds), to compile & upload by human click
    //sec=atoi(sTime[2]) + 8;

    //if you change power source to battery,
    //  you'd better put more time allowance
    sec=atoi(sTime[2]) + 15;
     d26:	ce 01       	movw	r24, r28
     d28:	07 96       	adiw	r24, 0x07	; 7
     d2a:	0e 94 67 0a 	call	0x14ce	; 0x14ce <atoi>
     d2e:	81 5f       	subi	r24, 0xF1	; 241
     d30:	80 93 73 04 	sts	0x0473, r24	; 0x800473 <sec>
    //hour = atoi(sHour);

    n=0;
    p = strtok(__DATE__," ");
     d34:	6d ee       	ldi	r22, 0xED	; 237
     d36:	73 e0       	ldi	r23, 0x03	; 3
     d38:	87 ed       	ldi	r24, 0xD7	; 215
     d3a:	93 e0       	ldi	r25, 0x03	; 3
     d3c:	0e 94 85 0a 	call	0x150a	; 0x150a <strtok>
     d40:	bc 01       	movw	r22, r24
    while (*p)
     d42:	fc 01       	movw	r30, r24
     d44:	80 81       	ld	r24, Z
     d46:	88 23       	and	r24, r24
     d48:	19 f1       	breq	.+70     	; 0xd90 <parseCompileTime+0xe8>
     d4a:	20 e0       	ldi	r18, 0x00	; 0
    {
        strcpy((char *)&sDate[n++], p);
     d4c:	11 e0       	ldi	r17, 0x01	; 1
     d4e:	12 0f       	add	r17, r18
     d50:	30 e0       	ldi	r19, 0x00	; 0
     d52:	c9 01       	movw	r24, r18
     d54:	88 0f       	add	r24, r24
     d56:	99 1f       	adc	r25, r25
     d58:	22 0f       	add	r18, r18
     d5a:	33 1f       	adc	r19, r19
     d5c:	22 0f       	add	r18, r18
     d5e:	33 1f       	adc	r19, r19
     d60:	22 0f       	add	r18, r18
     d62:	33 1f       	adc	r19, r19
     d64:	82 0f       	add	r24, r18
     d66:	93 1f       	adc	r25, r19
     d68:	2d e0       	ldi	r18, 0x0D	; 13
     d6a:	30 e0       	ldi	r19, 0x00	; 0
     d6c:	2c 0f       	add	r18, r28
     d6e:	3d 1f       	adc	r19, r29
     d70:	82 0f       	add	r24, r18
     d72:	93 1f       	adc	r25, r19
     d74:	0e 94 93 0a 	call	0x1526	; 0x1526 <strcpy>
        p=strtok(NULL, " ");
     d78:	6d ee       	ldi	r22, 0xED	; 237
     d7a:	73 e0       	ldi	r23, 0x03	; 3
     d7c:	80 e0       	ldi	r24, 0x00	; 0
     d7e:	90 e0       	ldi	r25, 0x00	; 0
     d80:	0e 94 85 0a 	call	0x150a	; 0x150a <strtok>
     d84:	bc 01       	movw	r22, r24

    n=0;
    p = strtok(__DATE__," ");
    while (*p)
    {
        strcpy((char *)&sDate[n++], p);
     d86:	21 2f       	mov	r18, r17
    sec=atoi(sTime[2]) + 15;
    //hour = atoi(sHour);

    n=0;
    p = strtok(__DATE__," ");
    while (*p)
     d88:	fc 01       	movw	r30, r24
     d8a:	80 81       	ld	r24, Z
     d8c:	81 11       	cpse	r24, r1
     d8e:	de cf       	rjmp	.-68     	; 0xd4c <parseCompileTime+0xa4>
    {
        strcpy((char *)&sDate[n++], p);
        p=strtok(NULL, " ");
    }

    if ( strcmp(sDate[0], "Jan") == 0 )
     d90:	67 e2       	ldi	r22, 0x27	; 39
     d92:	74 e0       	ldi	r23, 0x04	; 4
     d94:	ce 01       	movw	r24, r28
     d96:	0d 96       	adiw	r24, 0x0d	; 13
     d98:	0e 94 8a 0a 	call	0x1514	; 0x1514 <strcmp>
     d9c:	89 2b       	or	r24, r25
     d9e:	21 f4       	brne	.+8      	; 0xda8 <parseCompileTime+0x100>
        month = 1;
     da0:	81 e0       	ldi	r24, 0x01	; 1
     da2:	80 93 71 04 	sts	0x0471, r24	; 0x800471 <month>
     da6:	83 c0       	rjmp	.+262    	; 0xeae <parseCompileTime+0x206>
    else if ( strcmp(sDate[0], "Feb") == 0 )
     da8:	6b e2       	ldi	r22, 0x2B	; 43
     daa:	74 e0       	ldi	r23, 0x04	; 4
     dac:	ce 01       	movw	r24, r28
     dae:	0d 96       	adiw	r24, 0x0d	; 13
     db0:	0e 94 8a 0a 	call	0x1514	; 0x1514 <strcmp>
     db4:	89 2b       	or	r24, r25
     db6:	21 f4       	brne	.+8      	; 0xdc0 <parseCompileTime+0x118>
        month = 2;
     db8:	82 e0       	ldi	r24, 0x02	; 2
     dba:	80 93 71 04 	sts	0x0471, r24	; 0x800471 <month>
     dbe:	77 c0       	rjmp	.+238    	; 0xeae <parseCompileTime+0x206>
    else if ( strcmp(sDate[0], "Mar") == 0 )
     dc0:	6f e2       	ldi	r22, 0x2F	; 47
     dc2:	74 e0       	ldi	r23, 0x04	; 4
     dc4:	ce 01       	movw	r24, r28
     dc6:	0d 96       	adiw	r24, 0x0d	; 13
     dc8:	0e 94 8a 0a 	call	0x1514	; 0x1514 <strcmp>
     dcc:	89 2b       	or	r24, r25
     dce:	21 f4       	brne	.+8      	; 0xdd8 <parseCompileTime+0x130>
        month = 3;
     dd0:	83 e0       	ldi	r24, 0x03	; 3
     dd2:	80 93 71 04 	sts	0x0471, r24	; 0x800471 <month>
     dd6:	6b c0       	rjmp	.+214    	; 0xeae <parseCompileTime+0x206>
    else if ( strcmp(sDate[0], "Apr") == 0 )
     dd8:	63 e3       	ldi	r22, 0x33	; 51
     dda:	74 e0       	ldi	r23, 0x04	; 4
     ddc:	ce 01       	movw	r24, r28
     dde:	0d 96       	adiw	r24, 0x0d	; 13
     de0:	0e 94 8a 0a 	call	0x1514	; 0x1514 <strcmp>
     de4:	89 2b       	or	r24, r25
     de6:	21 f4       	brne	.+8      	; 0xdf0 <parseCompileTime+0x148>
        month = 4;
     de8:	84 e0       	ldi	r24, 0x04	; 4
     dea:	80 93 71 04 	sts	0x0471, r24	; 0x800471 <month>
     dee:	5f c0       	rjmp	.+190    	; 0xeae <parseCompileTime+0x206>
    else if ( strcmp(sDate[0], "May") == 0 )
     df0:	67 e3       	ldi	r22, 0x37	; 55
     df2:	74 e0       	ldi	r23, 0x04	; 4
     df4:	ce 01       	movw	r24, r28
     df6:	0d 96       	adiw	r24, 0x0d	; 13
     df8:	0e 94 8a 0a 	call	0x1514	; 0x1514 <strcmp>
     dfc:	89 2b       	or	r24, r25
     dfe:	21 f4       	brne	.+8      	; 0xe08 <parseCompileTime+0x160>
        month = 5;
     e00:	85 e0       	ldi	r24, 0x05	; 5
     e02:	80 93 71 04 	sts	0x0471, r24	; 0x800471 <month>
     e06:	53 c0       	rjmp	.+166    	; 0xeae <parseCompileTime+0x206>
    else if ( strcmp(sDate[0], "Jun") == 0 )
     e08:	6b e3       	ldi	r22, 0x3B	; 59
     e0a:	74 e0       	ldi	r23, 0x04	; 4
     e0c:	ce 01       	movw	r24, r28
     e0e:	0d 96       	adiw	r24, 0x0d	; 13
     e10:	0e 94 8a 0a 	call	0x1514	; 0x1514 <strcmp>
     e14:	89 2b       	or	r24, r25
     e16:	21 f4       	brne	.+8      	; 0xe20 <parseCompileTime+0x178>
        month = 6;
     e18:	86 e0       	ldi	r24, 0x06	; 6
     e1a:	80 93 71 04 	sts	0x0471, r24	; 0x800471 <month>
     e1e:	47 c0       	rjmp	.+142    	; 0xeae <parseCompileTime+0x206>
    else if ( strcmp(sDate[0], "Jul") == 0 )
     e20:	6f e3       	ldi	r22, 0x3F	; 63
     e22:	74 e0       	ldi	r23, 0x04	; 4
     e24:	ce 01       	movw	r24, r28
     e26:	0d 96       	adiw	r24, 0x0d	; 13
     e28:	0e 94 8a 0a 	call	0x1514	; 0x1514 <strcmp>
     e2c:	89 2b       	or	r24, r25
     e2e:	21 f4       	brne	.+8      	; 0xe38 <parseCompileTime+0x190>
        month = 7;
     e30:	87 e0       	ldi	r24, 0x07	; 7
     e32:	80 93 71 04 	sts	0x0471, r24	; 0x800471 <month>
     e36:	3b c0       	rjmp	.+118    	; 0xeae <parseCompileTime+0x206>
    else if ( strcmp(sDate[0], "Aug") == 0 )
     e38:	63 e4       	ldi	r22, 0x43	; 67
     e3a:	74 e0       	ldi	r23, 0x04	; 4
     e3c:	ce 01       	movw	r24, r28
     e3e:	0d 96       	adiw	r24, 0x0d	; 13
     e40:	0e 94 8a 0a 	call	0x1514	; 0x1514 <strcmp>
     e44:	89 2b       	or	r24, r25
     e46:	21 f4       	brne	.+8      	; 0xe50 <parseCompileTime+0x1a8>
        month = 8;
     e48:	88 e0       	ldi	r24, 0x08	; 8
     e4a:	80 93 71 04 	sts	0x0471, r24	; 0x800471 <month>
     e4e:	2f c0       	rjmp	.+94     	; 0xeae <parseCompileTime+0x206>
    else if ( strcmp(sDate[0], "Sep") == 0 )
     e50:	67 e4       	ldi	r22, 0x47	; 71
     e52:	74 e0       	ldi	r23, 0x04	; 4
     e54:	ce 01       	movw	r24, r28
     e56:	0d 96       	adiw	r24, 0x0d	; 13
     e58:	0e 94 8a 0a 	call	0x1514	; 0x1514 <strcmp>
     e5c:	89 2b       	or	r24, r25
     e5e:	21 f4       	brne	.+8      	; 0xe68 <parseCompileTime+0x1c0>
        month = 9;
     e60:	89 e0       	ldi	r24, 0x09	; 9
     e62:	80 93 71 04 	sts	0x0471, r24	; 0x800471 <month>
     e66:	23 c0       	rjmp	.+70     	; 0xeae <parseCompileTime+0x206>
    else if ( strcmp(sDate[0], "Oct") == 0 )
     e68:	6b e4       	ldi	r22, 0x4B	; 75
     e6a:	74 e0       	ldi	r23, 0x04	; 4
     e6c:	ce 01       	movw	r24, r28
     e6e:	0d 96       	adiw	r24, 0x0d	; 13
     e70:	0e 94 8a 0a 	call	0x1514	; 0x1514 <strcmp>
     e74:	89 2b       	or	r24, r25
     e76:	21 f4       	brne	.+8      	; 0xe80 <parseCompileTime+0x1d8>
        month = 10;
     e78:	8a e0       	ldi	r24, 0x0A	; 10
     e7a:	80 93 71 04 	sts	0x0471, r24	; 0x800471 <month>
     e7e:	17 c0       	rjmp	.+46     	; 0xeae <parseCompileTime+0x206>
    else if ( strcmp(sDate[0], "Nov") == 0 )
     e80:	6f e4       	ldi	r22, 0x4F	; 79
     e82:	74 e0       	ldi	r23, 0x04	; 4
     e84:	ce 01       	movw	r24, r28
     e86:	0d 96       	adiw	r24, 0x0d	; 13
     e88:	0e 94 8a 0a 	call	0x1514	; 0x1514 <strcmp>
     e8c:	89 2b       	or	r24, r25
     e8e:	21 f4       	brne	.+8      	; 0xe98 <parseCompileTime+0x1f0>
        month = 11;
     e90:	8b e0       	ldi	r24, 0x0B	; 11
     e92:	80 93 71 04 	sts	0x0471, r24	; 0x800471 <month>
     e96:	0b c0       	rjmp	.+22     	; 0xeae <parseCompileTime+0x206>
    else if ( strcmp(sDate[0], "Dec") == 0 )
     e98:	63 e5       	ldi	r22, 0x53	; 83
     e9a:	74 e0       	ldi	r23, 0x04	; 4
     e9c:	ce 01       	movw	r24, r28
     e9e:	0d 96       	adiw	r24, 0x0d	; 13
     ea0:	0e 94 8a 0a 	call	0x1514	; 0x1514 <strcmp>
     ea4:	89 2b       	or	r24, r25
     ea6:	19 f4       	brne	.+6      	; 0xeae <parseCompileTime+0x206>
        month = 12;
     ea8:	8c e0       	ldi	r24, 0x0C	; 12
     eaa:	80 93 71 04 	sts	0x0471, r24	; 0x800471 <month>

    date=atoi(sDate[1]);
     eae:	ce 01       	movw	r24, r28
     eb0:	47 96       	adiw	r24, 0x17	; 23
     eb2:	0e 94 67 0a 	call	0x14ce	; 0x14ce <atoi>
     eb6:	80 93 70 04 	sts	0x0470, r24	; 0x800470 <date>
    yearLong=atoi(sDate[2]);
     eba:	ce 01       	movw	r24, r28
     ebc:	81 96       	adiw	r24, 0x21	; 33
     ebe:	0e 94 67 0a 	call	0x14ce	; 0x14ce <atoi>
     ec2:	ac 01       	movw	r20, r24
    year=yearLong%1000;
     ec4:	9c 01       	movw	r18, r24
     ec6:	36 95       	lsr	r19
     ec8:	27 95       	ror	r18
     eca:	36 95       	lsr	r19
     ecc:	27 95       	ror	r18
     ece:	36 95       	lsr	r19
     ed0:	27 95       	ror	r18
     ed2:	a5 ec       	ldi	r26, 0xC5	; 197
     ed4:	b0 e2       	ldi	r27, 0x20	; 32
     ed6:	0e 94 38 0a 	call	0x1470	; 0x1470 <__umulhisi3>
     eda:	92 95       	swap	r25
     edc:	82 95       	swap	r24
     ede:	8f 70       	andi	r24, 0x0F	; 15
     ee0:	89 27       	eor	r24, r25
     ee2:	9f 70       	andi	r25, 0x0F	; 15
     ee4:	89 27       	eor	r24, r25
     ee6:	68 ee       	ldi	r22, 0xE8	; 232
     ee8:	73 e0       	ldi	r23, 0x03	; 3
     eea:	86 9f       	mul	r24, r22
     eec:	90 01       	movw	r18, r0
     eee:	87 9f       	mul	r24, r23
     ef0:	30 0d       	add	r19, r0
     ef2:	96 9f       	mul	r25, r22
     ef4:	30 0d       	add	r19, r0
     ef6:	11 24       	eor	r1, r1
     ef8:	42 1b       	sub	r20, r18
     efa:	53 0b       	sbc	r21, r19
     efc:	40 93 72 04 	sts	0x0472, r20	; 0x800472 <year>

    calcDay();
     f00:	0e 94 47 06 	call	0xc8e	; 0xc8e <calcDay>
}//parseCompileTime
     f04:	e4 96       	adiw	r28, 0x34	; 52
     f06:	0f b6       	in	r0, 0x3f	; 63
     f08:	f8 94       	cli
     f0a:	de bf       	out	0x3e, r29	; 62
     f0c:	0f be       	out	0x3f, r0	; 63
     f0e:	cd bf       	out	0x3d, r28	; 61
     f10:	df 91       	pop	r29
     f12:	cf 91       	pop	r28
     f14:	1f 91       	pop	r17
     f16:	08 95       	ret

00000f18 <tinudht_read>:
#define TINUDHT_RCV_DELAY 10
#define TINUDHT_RCV_LENGTH 2

// ----------------------------------------------------------------------------

uint8_t tinudht_read(TinuDHT *ptinudht, uint8_t dht_pin) {
     f18:	ef 92       	push	r14
     f1a:	ff 92       	push	r15
     f1c:	0f 93       	push	r16
     f1e:	1f 93       	push	r17
     f20:	cf 93       	push	r28
     f22:	df 93       	push	r29
     f24:	00 d0       	rcall	.+0      	; 0xf26 <tinudht_read+0xe>
     f26:	00 d0       	rcall	.+0      	; 0xf28 <tinudht_read+0x10>
     f28:	1f 92       	push	r1
     f2a:	cd b7       	in	r28, 0x3d	; 61
     f2c:	de b7       	in	r29, 0x3e	; 62
     f2e:	7c 01       	movw	r14, r24
	
	// Buffer to received data
	uint8_t data[5];
	// Empty the buffer
	data[0] = data[1] = data[2] = data[3] = data[4] = 0;
     f30:	1d 82       	std	Y+5, r1	; 0x05
     f32:	1c 82       	std	Y+4, r1	; 0x04
     f34:	1b 82       	std	Y+3, r1	; 0x03
     f36:	1a 82       	std	Y+2, r1	; 0x02
     f38:	19 82       	std	Y+1, r1	; 0x01
//	for (uint8_t i=0; i< 5; i++) data[i] = 0;	// Another way to empty the data buffer.

	// Send request
	DDRB |= (1 << dht_pin);	// Set port as output
     f3a:	84 b1       	in	r24, 0x04	; 4
     f3c:	41 e0       	ldi	r20, 0x01	; 1
     f3e:	50 e0       	ldi	r21, 0x00	; 0
     f40:	06 2e       	mov	r0, r22
     f42:	02 c0       	rjmp	.+4      	; 0xf48 <tinudht_read+0x30>
     f44:	44 0f       	add	r20, r20
     f46:	55 1f       	adc	r21, r21
     f48:	0a 94       	dec	r0
     f4a:	e2 f7       	brpl	.-8      	; 0xf44 <tinudht_read+0x2c>
     f4c:	84 2b       	or	r24, r20
     f4e:	84 b9       	out	0x04, r24	; 4
	PORTB &= ~(1 << dht_pin);	// Set to 0
     f50:	95 b1       	in	r25, 0x05	; 5
     f52:	24 2f       	mov	r18, r20
     f54:	20 95       	com	r18
     f56:	92 23       	and	r25, r18
     f58:	95 b9       	out	0x05, r25	; 5
     f5a:	83 e9       	ldi	r24, 0x93	; 147
     f5c:	91 e1       	ldi	r25, 0x11	; 17
     f5e:	01 97       	sbiw	r24, 0x01	; 1
     f60:	f1 f7       	brne	.-4      	; 0xf5e <tinudht_read+0x46>
     f62:	00 c0       	rjmp	.+0      	; 0xf64 <tinudht_read+0x4c>
     f64:	00 00       	nop
	_delay_ms(18);	// Wait 18 ms
	PORTB |= (1 << dht_pin);	// Set to 1
     f66:	95 b1       	in	r25, 0x05	; 5
     f68:	94 2b       	or	r25, r20
     f6a:	95 b9       	out	0x05, r25	; 5
	#else
		//round up by default
		__ticks_dc = (uint32_t)(ceil(fabs(__tmp)));
	#endif

	__builtin_avr_delay_cycles(__ticks_dc);
     f6c:	9d e0       	ldi	r25, 0x0D	; 13
     f6e:	9a 95       	dec	r25
     f70:	f1 f7       	brne	.-4      	; 0xf6e <tinudht_read+0x56>
     f72:	00 00       	nop
	_delay_us(40);	// Wait 40 us

	// Receive response
	DDRB &= ~(1 << dht_pin);	// Set port as input
     f74:	84 b1       	in	r24, 0x04	; 4
     f76:	82 23       	and	r24, r18
     f78:	84 b9       	out	0x04, r24	; 4

	uint8_t timeout;

	// Acknowledge
	timeout = TINUDHT_RCV_TIMEOUT;
	while(bit_is_clear(PINB, dht_pin))	// Wait for 1
     f7a:	80 e0       	ldi	r24, 0x00	; 0
     f7c:	03 c0       	rjmp	.+6      	; 0xf84 <tinudht_read+0x6c>
     f7e:	81 50       	subi	r24, 0x01	; 1
		if (timeout-- == 0)
     f80:	09 f4       	brne	.+2      	; 0xf84 <tinudht_read+0x6c>
     f82:	5a c0       	rjmp	.+180    	; 0x1038 <tinudht_read+0x120>

	uint8_t timeout;

	// Acknowledge
	timeout = TINUDHT_RCV_TIMEOUT;
	while(bit_is_clear(PINB, dht_pin))	// Wait for 1
     f84:	23 b1       	in	r18, 0x03	; 3
     f86:	30 e0       	ldi	r19, 0x00	; 0
     f88:	24 23       	and	r18, r20
     f8a:	35 23       	and	r19, r21
     f8c:	23 2b       	or	r18, r19
     f8e:	b9 f3       	breq	.-18     	; 0xf7e <tinudht_read+0x66>
     f90:	5d c0       	rjmp	.+186    	; 0x104c <tinudht_read+0x134>
     f92:	21 50       	subi	r18, 0x01	; 1
		if (timeout-- == 0)
			return TINUDHT_ERROR_TIMEOUT;
	
	timeout = TINUDHT_RCV_TIMEOUT;
	while(bit_is_set(PINB, dht_pin))	// Wait for 0
		if (timeout-- == 0)
     f94:	11 f4       	brne	.+4      	; 0xf9a <tinudht_read+0x82>
     f96:	52 c0       	rjmp	.+164    	; 0x103c <tinudht_read+0x124>
	while(bit_is_clear(PINB, dht_pin))	// Wait for 1
		if (timeout-- == 0)
			return TINUDHT_ERROR_TIMEOUT;
	
	timeout = TINUDHT_RCV_TIMEOUT;
	while(bit_is_set(PINB, dht_pin))	// Wait for 0
     f98:	2f ef       	ldi	r18, 0xFF	; 255
     f9a:	83 b1       	in	r24, 0x03	; 3
     f9c:	90 e0       	ldi	r25, 0x00	; 0
     f9e:	84 23       	and	r24, r20
     fa0:	95 23       	and	r25, r21
     fa2:	89 2b       	or	r24, r25
     fa4:	b1 f7       	brne	.-20     	; 0xf92 <tinudht_read+0x7a>
     fa6:	88 e2       	ldi	r24, 0x28	; 40
     fa8:	10 e0       	ldi	r17, 0x00	; 0
     faa:	a7 e0       	ldi	r26, 0x07	; 7
     fac:	03 c0       	rjmp	.+6      	; 0xfb4 <tinudht_read+0x9c>
     fae:	91 50       	subi	r25, 0x01	; 1
	for (uint8_t i = 0; i < 40; i++)
	{
		// Wait for start
		timeout = TINUDHT_RCV_TIMEOUT;
		while(bit_is_clear(PINB, dht_pin))	// Wait for 1
			if (timeout-- == 0)
     fb0:	31 f4       	brne	.+12     	; 0xfbe <tinudht_read+0xa6>
     fb2:	46 c0       	rjmp	.+140    	; 0x1040 <tinudht_read+0x128>
	while(bit_is_clear(PINB, dht_pin))	// Wait for 1
		if (timeout-- == 0)
			return TINUDHT_ERROR_TIMEOUT;
	
	timeout = TINUDHT_RCV_TIMEOUT;
	while(bit_is_set(PINB, dht_pin))	// Wait for 0
     fb4:	b0 e0       	ldi	r27, 0x00	; 0
			_delay_us(TINUDHT_RCV_DELAY);
			if (len++ == TINUDHT_RCV_TIMEOUT)
				return TINUDHT_ERROR_TIMEOUT;
			}

		if (len >= TINUDHT_RCV_LENGTH) data[byte_index] |= (1 << bit_index);
     fb6:	61 e0       	ldi	r22, 0x01	; 1
     fb8:	70 e0       	ldi	r23, 0x00	; 0
		// NOTE: The values of TINUDHT_RCV_DELAY and TINUDHT_RCV_LENGTH
		//       may need to be adjusted if the F_CPU changes.
		
		if (bit_index == 0)	// next byte?
		{
			bit_index = 7;	// restart at MSB
     fba:	07 e0       	ldi	r16, 0x07	; 7
	while(bit_is_clear(PINB, dht_pin))	// Wait for 1
		if (timeout-- == 0)
			return TINUDHT_ERROR_TIMEOUT;
	
	timeout = TINUDHT_RCV_TIMEOUT;
	while(bit_is_set(PINB, dht_pin))	// Wait for 0
     fbc:	9b 2f       	mov	r25, r27
	// READ OUTPUT - 40 BITS => 5 BYTES or TIMEOUT
	for (uint8_t i = 0; i < 40; i++)
	{
		// Wait for start
		timeout = TINUDHT_RCV_TIMEOUT;
		while(bit_is_clear(PINB, dht_pin))	// Wait for 1
     fbe:	23 b1       	in	r18, 0x03	; 3
     fc0:	30 e0       	ldi	r19, 0x00	; 0
     fc2:	24 23       	and	r18, r20
     fc4:	35 23       	and	r19, r21
     fc6:	23 2b       	or	r18, r19
     fc8:	91 f3       	breq	.-28     	; 0xfae <tinudht_read+0x96>
     fca:	9b 2f       	mov	r25, r27
     fcc:	06 c0       	rjmp	.+12     	; 0xfda <tinudht_read+0xc2>
     fce:	e3 e0       	ldi	r30, 0x03	; 3
     fd0:	ea 95       	dec	r30
     fd2:	f1 f7       	brne	.-4      	; 0xfd0 <tinudht_read+0xb8>
     fd4:	00 00       	nop

		// Determine the bit value
		uint8_t len = 0;
		while(bit_is_set(PINB, dht_pin)) {	// Wait for 0
			_delay_us(TINUDHT_RCV_DELAY);
			if (len++ == TINUDHT_RCV_TIMEOUT)
     fd6:	9f 5f       	subi	r25, 0xFF	; 255
     fd8:	a9 f1       	breq	.+106    	; 0x1044 <tinudht_read+0x12c>
			if (timeout-- == 0)
				return TINUDHT_ERROR_TIMEOUT;

		// Determine the bit value
		uint8_t len = 0;
		while(bit_is_set(PINB, dht_pin)) {	// Wait for 0
     fda:	23 b1       	in	r18, 0x03	; 3
     fdc:	30 e0       	ldi	r19, 0x00	; 0
     fde:	24 23       	and	r18, r20
     fe0:	35 23       	and	r19, r21
     fe2:	23 2b       	or	r18, r19
     fe4:	a1 f7       	brne	.-24     	; 0xfce <tinudht_read+0xb6>
			_delay_us(TINUDHT_RCV_DELAY);
			if (len++ == TINUDHT_RCV_TIMEOUT)
				return TINUDHT_ERROR_TIMEOUT;
			}

		if (len >= TINUDHT_RCV_LENGTH) data[byte_index] |= (1 << bit_index);
     fe6:	92 30       	cpi	r25, 0x02	; 2
     fe8:	80 f0       	brcs	.+32     	; 0x100a <tinudht_read+0xf2>
     fea:	e1 e0       	ldi	r30, 0x01	; 1
     fec:	f0 e0       	ldi	r31, 0x00	; 0
     fee:	ec 0f       	add	r30, r28
     ff0:	fd 1f       	adc	r31, r29
     ff2:	e1 0f       	add	r30, r17
     ff4:	f1 1d       	adc	r31, r1
     ff6:	90 81       	ld	r25, Z
     ff8:	9b 01       	movw	r18, r22
     ffa:	0a 2e       	mov	r0, r26
     ffc:	02 c0       	rjmp	.+4      	; 0x1002 <tinudht_read+0xea>
     ffe:	22 0f       	add	r18, r18
    1000:	33 1f       	adc	r19, r19
    1002:	0a 94       	dec	r0
    1004:	e2 f7       	brpl	.-8      	; 0xffe <tinudht_read+0xe6>
    1006:	29 2b       	or	r18, r25
    1008:	20 83       	st	Z, r18
		// delay =  9..29us, len = 2
		
		// NOTE: The values of TINUDHT_RCV_DELAY and TINUDHT_RCV_LENGTH
		//       may need to be adjusted if the F_CPU changes.
		
		if (bit_index == 0)	// next byte?
    100a:	a1 11       	cpse	r26, r1
    100c:	03 c0       	rjmp	.+6      	; 0x1014 <tinudht_read+0xfc>
		{
			bit_index = 7;	// restart at MSB
			byte_index++;	// next byte!
    100e:	1f 5f       	subi	r17, 0xFF	; 255
		// NOTE: The values of TINUDHT_RCV_DELAY and TINUDHT_RCV_LENGTH
		//       may need to be adjusted if the F_CPU changes.
		
		if (bit_index == 0)	// next byte?
		{
			bit_index = 7;	// restart at MSB
    1010:	a0 2f       	mov	r26, r16
    1012:	01 c0       	rjmp	.+2      	; 0x1016 <tinudht_read+0xfe>
			byte_index++;	// next byte!
		}
		else bit_index--;
    1014:	a1 50       	subi	r26, 0x01	; 1
    1016:	81 50       	subi	r24, 0x01	; 1
			return TINUDHT_ERROR_TIMEOUT;

	uint8_t bit_index = 7;
	uint8_t byte_index = 0;
	// READ OUTPUT - 40 BITS => 5 BYTES or TIMEOUT
	for (uint8_t i = 0; i < 40; i++)
    1018:	89 f6       	brne	.-94     	; 0xfbc <tinudht_read+0xa4>
	// DEBUGGING_STRING("DT:");
	// DEBUGGING_NUMDECP(data[2]);
	// DEBUGGING_NUMDECP(data[3]);
	// DEBUGGING_STRING("\n\r");

	uint8_t checksum = data[0] + data[2];	// TODO: Fix this, does not work in border cases.
    101a:	49 81       	ldd	r20, Y+1	; 0x01
    101c:	2b 81       	ldd	r18, Y+3	; 0x03
    101e:	92 2f       	mov	r25, r18
    1020:	94 0f       	add	r25, r20
	if (data[4] != checksum) return TINUDHT_ERROR_CHECKSUM;
    1022:	3d 81       	ldd	r19, Y+5	; 0x05
    1024:	39 13       	cpse	r19, r25
    1026:	10 c0       	rjmp	.+32     	; 0x1048 <tinudht_read+0x130>
	// DEBUGGING_NUMDECP(data[4]);
	// DEBUGGING_NUMDECP(checksum);
	// DEBUGGING_STRING("\n\r");

	// On DHT11 data[1],data[3] are always zero so not used.
	ptinudht->humidity = data[0]; 
    1028:	50 e0       	ldi	r21, 0x00	; 0
    102a:	f7 01       	movw	r30, r14
    102c:	51 83       	std	Z+1, r21	; 0x01
    102e:	40 83       	st	Z, r20
	ptinudht->temperature = data[2]; 
    1030:	30 e0       	ldi	r19, 0x00	; 0
    1032:	33 83       	std	Z+3, r19	; 0x03
    1034:	22 83       	std	Z+2, r18	; 0x02

	return TINUDHT_OK;
    1036:	17 c0       	rjmp	.+46     	; 0x1066 <tinudht_read+0x14e>

	// Acknowledge
	timeout = TINUDHT_RCV_TIMEOUT;
	while(bit_is_clear(PINB, dht_pin))	// Wait for 1
		if (timeout-- == 0)
			return TINUDHT_ERROR_TIMEOUT;
    1038:	8e ef       	ldi	r24, 0xFE	; 254
    103a:	15 c0       	rjmp	.+42     	; 0x1066 <tinudht_read+0x14e>
	
	timeout = TINUDHT_RCV_TIMEOUT;
	while(bit_is_set(PINB, dht_pin))	// Wait for 0
		if (timeout-- == 0)
			return TINUDHT_ERROR_TIMEOUT;
    103c:	8e ef       	ldi	r24, 0xFE	; 254
    103e:	13 c0       	rjmp	.+38     	; 0x1066 <tinudht_read+0x14e>
	{
		// Wait for start
		timeout = TINUDHT_RCV_TIMEOUT;
		while(bit_is_clear(PINB, dht_pin))	// Wait for 1
			if (timeout-- == 0)
				return TINUDHT_ERROR_TIMEOUT;
    1040:	8e ef       	ldi	r24, 0xFE	; 254
    1042:	11 c0       	rjmp	.+34     	; 0x1066 <tinudht_read+0x14e>
		// Determine the bit value
		uint8_t len = 0;
		while(bit_is_set(PINB, dht_pin)) {	// Wait for 0
			_delay_us(TINUDHT_RCV_DELAY);
			if (len++ == TINUDHT_RCV_TIMEOUT)
				return TINUDHT_ERROR_TIMEOUT;
    1044:	8e ef       	ldi	r24, 0xFE	; 254
    1046:	0f c0       	rjmp	.+30     	; 0x1066 <tinudht_read+0x14e>
	// DEBUGGING_NUMDECP(data[2]);
	// DEBUGGING_NUMDECP(data[3]);
	// DEBUGGING_STRING("\n\r");

	uint8_t checksum = data[0] + data[2];	// TODO: Fix this, does not work in border cases.
	if (data[4] != checksum) return TINUDHT_ERROR_CHECKSUM;
    1048:	8f ef       	ldi	r24, 0xFF	; 255
    104a:	0d c0       	rjmp	.+26     	; 0x1066 <tinudht_read+0x14e>
	while(bit_is_clear(PINB, dht_pin))	// Wait for 1
		if (timeout-- == 0)
			return TINUDHT_ERROR_TIMEOUT;
	
	timeout = TINUDHT_RCV_TIMEOUT;
	while(bit_is_set(PINB, dht_pin))	// Wait for 0
    104c:	83 b1       	in	r24, 0x03	; 3
    104e:	90 e0       	ldi	r25, 0x00	; 0
    1050:	02 c0       	rjmp	.+4      	; 0x1056 <tinudht_read+0x13e>
    1052:	95 95       	asr	r25
    1054:	87 95       	ror	r24
    1056:	6a 95       	dec	r22
    1058:	e2 f7       	brpl	.-8      	; 0x1052 <tinudht_read+0x13a>
    105a:	80 fd       	sbrc	r24, 0
    105c:	9d cf       	rjmp	.-198    	; 0xf98 <tinudht_read+0x80>
    105e:	88 e2       	ldi	r24, 0x28	; 40
    1060:	10 e0       	ldi	r17, 0x00	; 0
    1062:	a7 e0       	ldi	r26, 0x07	; 7
    1064:	a7 cf       	rjmp	.-178    	; 0xfb4 <tinudht_read+0x9c>
	// On DHT11 data[1],data[3] are always zero so not used.
	ptinudht->humidity = data[0]; 
	ptinudht->temperature = data[2]; 

	return TINUDHT_OK;
}
    1066:	0f 90       	pop	r0
    1068:	0f 90       	pop	r0
    106a:	0f 90       	pop	r0
    106c:	0f 90       	pop	r0
    106e:	0f 90       	pop	r0
    1070:	df 91       	pop	r29
    1072:	cf 91       	pop	r28
    1074:	1f 91       	pop	r17
    1076:	0f 91       	pop	r16
    1078:	ff 90       	pop	r15
    107a:	ef 90       	pop	r14
    107c:	08 95       	ret

0000107e <makePDasOutput>:
//by calling makePDasInput(). (added by Insoo: Jul 12, 2017)
void makePDasOutput()
{
	// configure the microprocessor pins for the data lines
	// 4 data lines - output
	lcd_D7_ddr |= _BV(lcd_D7_bit);
    107e:	57 9a       	sbi	0x0a, 7	; 10
	lcd_D6_ddr |= _BV(lcd_D6_bit);
    1080:	56 9a       	sbi	0x0a, 6	; 10
	lcd_D5_ddr |= _BV(lcd_D5_bit);
    1082:	55 9a       	sbi	0x0a, 5	; 10
	lcd_D4_ddr |= _BV(lcd_D4_bit);
    1084:	54 9a       	sbi	0x0a, 4	; 10

	// LCD backlight cathode pin (K) - Output
	lcd_Backlight_ddr |= _BV(lcd_Backlight_bit);
    1086:	20 9a       	sbi	0x04, 0	; 4

	// LCD VSS pin (Power Supply) - Output
	lcd_VDD_ddr |= _BV(lcd_VDD_bit);
    1088:	26 9a       	sbi	0x04, 6	; 4
	//turn on LCD power
	lcd_VDD_port |= _BV(lcd_VDD_bit);
    108a:	2e 9a       	sbi	0x05, 6	; 5
	#else
		//round up by default
		__ticks_dc = (uint32_t)(ceil(fabs(__tmp)));
	#endif

	__builtin_avr_delay_cycles(__ticks_dc);
    108c:	83 ec       	ldi	r24, 0xC3	; 195
    108e:	99 e0       	ldi	r25, 0x09	; 9
    1090:	01 97       	sbiw	r24, 0x01	; 1
    1092:	f1 f7       	brne	.-4      	; 0x1090 <makePDasOutput+0x12>
    1094:	00 c0       	rjmp	.+0      	; 0x1096 <makePDasOutput+0x18>
    1096:	00 00       	nop
	_delay_ms(10);

	// DS1307 Vcc pin (Power Supply) - output
	DS1307_VCC_ddr |= _BV(DS1307_VCC_bit);
    1098:	27 9a       	sbi	0x04, 7	; 4
	//turn on DS1307 power
	DS1307_VCC_port |= _BV(DS1307_VCC_bit);
    109a:	2f 9a       	sbi	0x05, 7	; 5
    109c:	83 ec       	ldi	r24, 0xC3	; 195
    109e:	99 e0       	ldi	r25, 0x09	; 9
    10a0:	01 97       	sbiw	r24, 0x01	; 1
    10a2:	f1 f7       	brne	.-4      	; 0x10a0 <makePDasOutput+0x22>
    10a4:	00 c0       	rjmp	.+0      	; 0x10a6 <makePDasOutput+0x28>
    10a6:	00 00       	nop
	_delay_ms(10);

	// DHT11 (temp & humid sensor) VCC pin (Power Supply) - Output
	//added by Insoo (Jul 14, 2017)
	DHT_VCC_ddr &= ~_BV(DHT_VCC_bit);
    10a8:	22 98       	cbi	0x04, 2	; 4
	//turn on DHT11 chip power
	DHT_VCC_port |= _BV(DHT_VCC_bit);
    10aa:	2a 9a       	sbi	0x05, 2	; 5
	//Tactile switch - Input
	//tactile_Switch_ddr |= _BV(tactile_Switch_bit);

	// configure the microprocessor pins for the control lines
	// E line - output
	lcd_E_ddr |= _BV(lcd_E_bit);
    10ac:	53 9a       	sbi	0x0a, 3	; 10
	// RS line - output
	lcd_RS_ddr |= _BV(lcd_RS_bit);
    10ae:	52 9a       	sbi	0x0a, 2	; 10
	// turn off RS
	lcd_RS_port &= ~_BV(lcd_RS_bit);
    10b0:	5a 98       	cbi	0x0b, 2	; 11
    10b2:	08 95       	ret

000010b4 <makePDasInput>:
void makePDasInput()
{

	// turn off four data lines 
	// following four lines added by Insoo on Jul 15, 2017
	lcd_D7_port &= ~_BV(lcd_D7_bit);
    10b4:	5f 98       	cbi	0x0b, 7	; 11
	lcd_D6_port &= ~_BV(lcd_D6_bit);
    10b6:	5e 98       	cbi	0x0b, 6	; 11
	lcd_D5_port &= ~_BV(lcd_D5_bit);
    10b8:	5d 98       	cbi	0x0b, 5	; 11
	lcd_D4_port &= ~_BV(lcd_D4_bit);
    10ba:	5c 98       	cbi	0x0b, 4	; 11

	// configure the microprocessor pins for the data lines
	// 4 data lines - output, but make it input
	lcd_D7_ddr &= ~_BV(lcd_D7_bit);
    10bc:	57 98       	cbi	0x0a, 7	; 10
	lcd_D6_ddr &= ~_BV(lcd_D6_bit);
    10be:	56 98       	cbi	0x0a, 6	; 10
	lcd_D5_ddr &= ~_BV(lcd_D5_bit);
    10c0:	55 98       	cbi	0x0a, 5	; 10
	lcd_D4_ddr &= ~_BV(lcd_D4_bit);
    10c2:	54 98       	cbi	0x0a, 4	; 10

	// turn off backlight cathode(GND)
	// following one line added by Insoo on Jul 15, 2017
	lcd_Backlight_port = _BV(lcd_Backlight_bit);
    10c4:	81 e0       	ldi	r24, 0x01	; 1
    10c6:	85 b9       	out	0x05, r24	; 5
	// LCD backlight cathode pin (K) - output, but make it input
	lcd_Backlight_ddr &= ~_BV(lcd_Backlight_bit);
    10c8:	20 98       	cbi	0x04, 0	; 4

	// turn off DS1307
	DS1307_VCC_port &= ~_BV(DS1307_VCC_bit);
    10ca:	2f 98       	cbi	0x05, 7	; 5
	// then, DS1307 Vcc pin (Power Supply) - output, but make it input
	DS1307_VCC_ddr &= ~_BV(DS1307_VCC_bit);
    10cc:	27 98       	cbi	0x04, 7	; 4

	// DHT11 (temp & humid sensor) signal pin - Output/Input
	//turn off and
	DHT_SIG_port &= ~_BV(DHT_SIG_bit);
    10ce:	29 98       	cbi	0x05, 1	; 5
	//make it input
	DHT_SIG_ddr &= ~_BV(DHT_SIG_bit);
    10d0:	21 98       	cbi	0x04, 1	; 4
	DHT_SIG_port &= ~_BV(DHT_SIG_bit);
    10d2:	29 98       	cbi	0x05, 1	; 5

	//turn off DHT11 chip power
	DHT_VCC_port &= ~_BV(DHT_VCC_bit);
    10d4:	2a 98       	cbi	0x05, 2	; 5
	//make DHT_VCC as input, added by Insoo (Jul 14, 2017)
	DHT_VCC_ddr &= ~_BV(DHT_VCC_bit);
    10d6:	22 98       	cbi	0x04, 2	; 4
	//Tactile switch - Input
	//tactile_Switch_ddr &= ~_BV(tactile_Switch_bit);

	// turn off Enable pin
	// following one line added by Insoo on Jul 15, 2017
	lcd_E_port &= ~_BV(lcd_E_bit);
    10d8:	5b 98       	cbi	0x0b, 3	; 11
	// configure the microprocessor pins for the control lines
	// E line - output, but make it input
	lcd_E_ddr &= ~_BV(lcd_E_bit);
    10da:	53 98       	cbi	0x0a, 3	; 10
	
	// turn off RS 
	lcd_RS_port &= ~_BV(lcd_RS_bit);
    10dc:	5a 98       	cbi	0x0b, 2	; 11
	// RS line - output, but make it input
	lcd_RS_ddr &= ~_BV(lcd_RS_bit);
    10de:	52 98       	cbi	0x0a, 2	; 10

	// turn off LCD power
	lcd_VDD_port &= ~_BV(lcd_VDD_bit);
    10e0:	2e 98       	cbi	0x05, 6	; 5
	// then, LCD VSS pin (Power Supply) - output, but make it input
	lcd_VDD_ddr &= ~_BV(lcd_VDD_bit);
    10e2:	26 98       	cbi	0x04, 6	; 4
    10e4:	08 95       	ret

000010e6 <adjustHour>:

}//makePDasInput

void adjustHour()
{
    10e6:	0f 93       	push	r16
    10e8:	1f 93       	push	r17
    10ea:	cf 93       	push	r28
    10ec:	df 93       	push	r29
    10ee:	00 d0       	rcall	.+0      	; 0x10f0 <adjustHour+0xa>
    10f0:	1f 92       	push	r1
    10f2:	cd b7       	in	r28, 0x3d	; 61
    10f4:	de b7       	in	r29, 0x3e	; 62
    uint8_t DONE=0, val;
    uint8_t curLoop=0, preLoop=0, lapse=0;
    10f6:	00 e0       	ldi	r16, 0x00	; 0
    10f8:	10 e0       	ldi	r17, 0x00	; 0
    char strHour[3];

    while (!DONE)
    {
    // set cursor to start of first line
        lcd_write_instruction_4d(lcd_SetCursor | lcd_LineOne);
    10fa:	80 e8       	ldi	r24, 0x80	; 128
    10fc:	0e 94 83 03 	call	0x706	; 0x706 <lcd_write_instruction_4d>
	#else
		//round up by default
		__ticks_dc = (uint32_t)(ceil(fabs(__tmp)));
	#endif

	__builtin_avr_delay_cycles(__ticks_dc);
    1100:	84 e1       	ldi	r24, 0x14	; 20
    1102:	8a 95       	dec	r24
    1104:	f1 f7       	brne	.-4      	; 0x1102 <adjustHour+0x1c>
        _delay_us(DELAY_INST);                                  // 40 uS delay (min)
    // display the first line of information
        lcd_write_string_4d((uint8_t *)"Hour: ");
    1106:	87 e5       	ldi	r24, 0x57	; 87
    1108:	94 e0       	ldi	r25, 0x04	; 4
    110a:	0e 94 54 03 	call	0x6a8	; 0x6a8 <lcd_write_string_4d>
        itoa(hour, strHour, 10);
    110e:	80 91 75 04 	lds	r24, 0x0475	; 0x800475 <hour>
    1112:	4a e0       	ldi	r20, 0x0A	; 10
    1114:	be 01       	movw	r22, r28
    1116:	6f 5f       	subi	r22, 0xFF	; 255
    1118:	7f 4f       	sbci	r23, 0xFF	; 255
    111a:	08 2e       	mov	r0, r24
    111c:	00 0c       	add	r0, r0
    111e:	99 0b       	sbc	r25, r25
    1120:	0e 94 c1 0a 	call	0x1582	; 0x1582 <__itoa_ncheck>
        lcd_write_string_4d((uint8_t *)strHour);
    1124:	ce 01       	movw	r24, r28
    1126:	01 96       	adiw	r24, 0x01	; 1
    1128:	0e 94 54 03 	call	0x6a8	; 0x6a8 <lcd_write_string_4d>
        lcd_write_string_4d((uint8_t *)" ");
    112c:	8d ee       	ldi	r24, 0xED	; 237
    112e:	93 e0       	ldi	r25, 0x03	; 3
    1130:	0e 94 54 03 	call	0x6a8	; 0x6a8 <lcd_write_string_4d>
        val = tactile_Switch_port & _BV(tactile_Switch_bit);
    1134:	83 b1       	in	r24, 0x03	; 3
	#else
		//round up by default
		__ticks_dc = (uint32_t)(ceil(fabs(__tmp)));
	#endif

	__builtin_avr_delay_cycles(__ticks_dc);
    1136:	e7 ea       	ldi	r30, 0xA7	; 167
    1138:	f1 e6       	ldi	r31, 0x61	; 97
    113a:	31 97       	sbiw	r30, 0x01	; 1
    113c:	f1 f7       	brne	.-4      	; 0x113a <adjustHour+0x54>
    113e:	00 c0       	rjmp	.+0      	; 0x1140 <adjustHour+0x5a>
    1140:	00 00       	nop
        _delay_ms(100);
        if (val == 0)
    1142:	84 fd       	sbrc	r24, 4
    1144:	0c c0       	rjmp	.+24     	; 0x115e <adjustHour+0x78>
        {
            hour++;
    1146:	80 91 75 04 	lds	r24, 0x0475	; 0x800475 <hour>
    114a:	8f 5f       	subi	r24, 0xFF	; 255
            if (hour > 23)
    114c:	88 31       	cpi	r24, 0x18	; 24
    114e:	24 f4       	brge	.+8      	; 0x1158 <adjustHour+0x72>
        lcd_write_string_4d((uint8_t *)" ");
        val = tactile_Switch_port & _BV(tactile_Switch_bit);
        _delay_ms(100);
        if (val == 0)
        {
            hour++;
    1150:	80 93 75 04 	sts	0x0475, r24	; 0x800475 <hour>
    1154:	01 2f       	mov	r16, r17
    1156:	03 c0       	rjmp	.+6      	; 0x115e <adjustHour+0x78>
            if (hour > 23)
                hour=0;
    1158:	10 92 75 04 	sts	0x0475, r1	; 0x800475 <hour>
    115c:	01 2f       	mov	r16, r17
            preLoop = curLoop;
        }
        curLoop++;
    115e:	1f 5f       	subi	r17, 0xFF	; 255
        lapse = curLoop - preLoop;
    1160:	81 2f       	mov	r24, r17
    1162:	80 1b       	sub	r24, r16
        if (lapse > adjustTimeInterval)
    1164:	89 30       	cpi	r24, 0x09	; 9
    1166:	38 f4       	brcc	.+14     	; 0x1176 <adjustHour+0x90>
    1168:	81 e1       	ldi	r24, 0x11	; 17
    116a:	9a e7       	ldi	r25, 0x7A	; 122
    116c:	01 97       	sbiw	r24, 0x01	; 1
    116e:	f1 f7       	brne	.-4      	; 0x116c <adjustHour+0x86>
    1170:	00 c0       	rjmp	.+0      	; 0x1172 <adjustHour+0x8c>
    1172:	00 00       	nop
    1174:	c2 cf       	rjmp	.-124    	; 0x10fa <adjustHour+0x14>
    1176:	e1 e1       	ldi	r30, 0x11	; 17
    1178:	fa e7       	ldi	r31, 0x7A	; 122
    117a:	31 97       	sbiw	r30, 0x01	; 1
    117c:	f1 f7       	brne	.-4      	; 0x117a <adjustHour+0x94>
    117e:	00 c0       	rjmp	.+0      	; 0x1180 <adjustHour+0x9a>
    1180:	00 00       	nop
            DONE = 1;
        _delay_ms(halfSec/4);
    }//while (!DONE)
}//adjustHour
    1182:	0f 90       	pop	r0
    1184:	0f 90       	pop	r0
    1186:	0f 90       	pop	r0
    1188:	df 91       	pop	r29
    118a:	cf 91       	pop	r28
    118c:	1f 91       	pop	r17
    118e:	0f 91       	pop	r16
    1190:	08 95       	ret

00001192 <adjustMin>:

void adjustMin()
{
    1192:	0f 93       	push	r16
    1194:	1f 93       	push	r17
    1196:	cf 93       	push	r28
    1198:	df 93       	push	r29
    119a:	00 d0       	rcall	.+0      	; 0x119c <adjustMin+0xa>
    119c:	1f 92       	push	r1
    119e:	cd b7       	in	r28, 0x3d	; 61
    11a0:	de b7       	in	r29, 0x3e	; 62
    uint8_t DONE=0, val;
    uint8_t curLoop=0, preLoop=0, lapse=0;
    11a2:	00 e0       	ldi	r16, 0x00	; 0
    11a4:	10 e0       	ldi	r17, 0x00	; 0
    char strMin[3];

    while (!DONE)
    {
    // set cursor to start of first line
        lcd_write_instruction_4d(lcd_SetCursor | lcd_LineOne);
    11a6:	80 e8       	ldi	r24, 0x80	; 128
    11a8:	0e 94 83 03 	call	0x706	; 0x706 <lcd_write_instruction_4d>
	#else
		//round up by default
		__ticks_dc = (uint32_t)(ceil(fabs(__tmp)));
	#endif

	__builtin_avr_delay_cycles(__ticks_dc);
    11ac:	84 e1       	ldi	r24, 0x14	; 20
    11ae:	8a 95       	dec	r24
    11b0:	f1 f7       	brne	.-4      	; 0x11ae <adjustMin+0x1c>
        _delay_us(DELAY_INST);                                  // 40 uS delay (min)
    // display the first line of information
        lcd_write_string_4d((uint8_t *)"Min: ");
    11b2:	8e e5       	ldi	r24, 0x5E	; 94
    11b4:	94 e0       	ldi	r25, 0x04	; 4
    11b6:	0e 94 54 03 	call	0x6a8	; 0x6a8 <lcd_write_string_4d>
        itoa(min, strMin, 10);
    11ba:	80 91 74 04 	lds	r24, 0x0474	; 0x800474 <min>
    11be:	4a e0       	ldi	r20, 0x0A	; 10
    11c0:	be 01       	movw	r22, r28
    11c2:	6f 5f       	subi	r22, 0xFF	; 255
    11c4:	7f 4f       	sbci	r23, 0xFF	; 255
    11c6:	08 2e       	mov	r0, r24
    11c8:	00 0c       	add	r0, r0
    11ca:	99 0b       	sbc	r25, r25
    11cc:	0e 94 c1 0a 	call	0x1582	; 0x1582 <__itoa_ncheck>
        lcd_write_string_4d((uint8_t *)strMin);
    11d0:	ce 01       	movw	r24, r28
    11d2:	01 96       	adiw	r24, 0x01	; 1
    11d4:	0e 94 54 03 	call	0x6a8	; 0x6a8 <lcd_write_string_4d>
        lcd_write_string_4d((uint8_t *)" ");
    11d8:	8d ee       	ldi	r24, 0xED	; 237
    11da:	93 e0       	ldi	r25, 0x03	; 3
    11dc:	0e 94 54 03 	call	0x6a8	; 0x6a8 <lcd_write_string_4d>
        val = tactile_Switch_port & _BV(tactile_Switch_bit);
    11e0:	83 b1       	in	r24, 0x03	; 3
	#else
		//round up by default
		__ticks_dc = (uint32_t)(ceil(fabs(__tmp)));
	#endif

	__builtin_avr_delay_cycles(__ticks_dc);
    11e2:	e7 ea       	ldi	r30, 0xA7	; 167
    11e4:	f1 e6       	ldi	r31, 0x61	; 97
    11e6:	31 97       	sbiw	r30, 0x01	; 1
    11e8:	f1 f7       	brne	.-4      	; 0x11e6 <adjustMin+0x54>
    11ea:	00 c0       	rjmp	.+0      	; 0x11ec <adjustMin+0x5a>
    11ec:	00 00       	nop
        _delay_ms(100);
        if (val == 0)
    11ee:	84 fd       	sbrc	r24, 4
    11f0:	0c c0       	rjmp	.+24     	; 0x120a <adjustMin+0x78>
        {
            min++;
    11f2:	80 91 74 04 	lds	r24, 0x0474	; 0x800474 <min>
    11f6:	8f 5f       	subi	r24, 0xFF	; 255
            if (min > 59)
    11f8:	8c 33       	cpi	r24, 0x3C	; 60
    11fa:	24 f4       	brge	.+8      	; 0x1204 <adjustMin+0x72>
        lcd_write_string_4d((uint8_t *)" ");
        val = tactile_Switch_port & _BV(tactile_Switch_bit);
        _delay_ms(100);
        if (val == 0)
        {
            min++;
    11fc:	80 93 74 04 	sts	0x0474, r24	; 0x800474 <min>
    1200:	01 2f       	mov	r16, r17
    1202:	03 c0       	rjmp	.+6      	; 0x120a <adjustMin+0x78>
            if (min > 59)
                min=0;
    1204:	10 92 74 04 	sts	0x0474, r1	; 0x800474 <min>
    1208:	01 2f       	mov	r16, r17
            preLoop = curLoop;
        }
        curLoop++;
    120a:	1f 5f       	subi	r17, 0xFF	; 255
        lapse = curLoop - preLoop;
    120c:	81 2f       	mov	r24, r17
    120e:	80 1b       	sub	r24, r16
        if (lapse > adjustTimeInterval)
    1210:	89 30       	cpi	r24, 0x09	; 9
    1212:	38 f4       	brcc	.+14     	; 0x1222 <adjustMin+0x90>
    1214:	81 e1       	ldi	r24, 0x11	; 17
    1216:	9a e7       	ldi	r25, 0x7A	; 122
    1218:	01 97       	sbiw	r24, 0x01	; 1
    121a:	f1 f7       	brne	.-4      	; 0x1218 <adjustMin+0x86>
    121c:	00 c0       	rjmp	.+0      	; 0x121e <adjustMin+0x8c>
    121e:	00 00       	nop
    1220:	c2 cf       	rjmp	.-124    	; 0x11a6 <adjustMin+0x14>
    1222:	e1 e1       	ldi	r30, 0x11	; 17
    1224:	fa e7       	ldi	r31, 0x7A	; 122
    1226:	31 97       	sbiw	r30, 0x01	; 1
    1228:	f1 f7       	brne	.-4      	; 0x1226 <adjustMin+0x94>
    122a:	00 c0       	rjmp	.+0      	; 0x122c <adjustMin+0x9a>
    122c:	00 00       	nop
            DONE = 1;
        _delay_ms(halfSec/4);
    }//while (!DONE)

}//adjustMin
    122e:	0f 90       	pop	r0
    1230:	0f 90       	pop	r0
    1232:	0f 90       	pop	r0
    1234:	df 91       	pop	r29
    1236:	cf 91       	pop	r28
    1238:	1f 91       	pop	r17
    123a:	0f 91       	pop	r16
    123c:	08 95       	ret

0000123e <adjustSec>:

void adjustSec()
{
    123e:	0f 93       	push	r16
    1240:	1f 93       	push	r17
    1242:	cf 93       	push	r28
    1244:	df 93       	push	r29
    1246:	00 d0       	rcall	.+0      	; 0x1248 <adjustSec+0xa>
    1248:	1f 92       	push	r1
    124a:	cd b7       	in	r28, 0x3d	; 61
    124c:	de b7       	in	r29, 0x3e	; 62
    uint8_t DONE=0, val;
    uint8_t curLoop=0, preLoop=0, lapse=0;
    124e:	00 e0       	ldi	r16, 0x00	; 0
    1250:	10 e0       	ldi	r17, 0x00	; 0
    char strSec[3];

    while (!DONE)
    {
    // set cursor to start of first line
        lcd_write_instruction_4d(lcd_SetCursor | lcd_LineOne);
    1252:	80 e8       	ldi	r24, 0x80	; 128
    1254:	0e 94 83 03 	call	0x706	; 0x706 <lcd_write_instruction_4d>
	#else
		//round up by default
		__ticks_dc = (uint32_t)(ceil(fabs(__tmp)));
	#endif

	__builtin_avr_delay_cycles(__ticks_dc);
    1258:	84 e1       	ldi	r24, 0x14	; 20
    125a:	8a 95       	dec	r24
    125c:	f1 f7       	brne	.-4      	; 0x125a <adjustSec+0x1c>
        _delay_us(DELAY_INST);                                  // 40 uS delay (sec)
    // display the first line of information
        lcd_write_string_4d((uint8_t *)"sec: ");
    125e:	84 e6       	ldi	r24, 0x64	; 100
    1260:	94 e0       	ldi	r25, 0x04	; 4
    1262:	0e 94 54 03 	call	0x6a8	; 0x6a8 <lcd_write_string_4d>
        itoa(sec, strSec, 10);
    1266:	80 91 73 04 	lds	r24, 0x0473	; 0x800473 <sec>
    126a:	4a e0       	ldi	r20, 0x0A	; 10
    126c:	be 01       	movw	r22, r28
    126e:	6f 5f       	subi	r22, 0xFF	; 255
    1270:	7f 4f       	sbci	r23, 0xFF	; 255
    1272:	08 2e       	mov	r0, r24
    1274:	00 0c       	add	r0, r0
    1276:	99 0b       	sbc	r25, r25
    1278:	0e 94 c1 0a 	call	0x1582	; 0x1582 <__itoa_ncheck>
        lcd_write_string_4d((uint8_t *)strSec);
    127c:	ce 01       	movw	r24, r28
    127e:	01 96       	adiw	r24, 0x01	; 1
    1280:	0e 94 54 03 	call	0x6a8	; 0x6a8 <lcd_write_string_4d>
        lcd_write_string_4d((uint8_t *)" ");
    1284:	8d ee       	ldi	r24, 0xED	; 237
    1286:	93 e0       	ldi	r25, 0x03	; 3
    1288:	0e 94 54 03 	call	0x6a8	; 0x6a8 <lcd_write_string_4d>
        val = tactile_Switch_port & _BV(tactile_Switch_bit);
    128c:	83 b1       	in	r24, 0x03	; 3
	#else
		//round up by default
		__ticks_dc = (uint32_t)(ceil(fabs(__tmp)));
	#endif

	__builtin_avr_delay_cycles(__ticks_dc);
    128e:	e7 ea       	ldi	r30, 0xA7	; 167
    1290:	f1 e6       	ldi	r31, 0x61	; 97
    1292:	31 97       	sbiw	r30, 0x01	; 1
    1294:	f1 f7       	brne	.-4      	; 0x1292 <adjustSec+0x54>
    1296:	00 c0       	rjmp	.+0      	; 0x1298 <adjustSec+0x5a>
    1298:	00 00       	nop
        _delay_ms(100);
        if (val == 0)
    129a:	84 fd       	sbrc	r24, 4
    129c:	0c c0       	rjmp	.+24     	; 0x12b6 <adjustSec+0x78>
        {
            sec++;
    129e:	80 91 73 04 	lds	r24, 0x0473	; 0x800473 <sec>
    12a2:	8f 5f       	subi	r24, 0xFF	; 255
            if (sec > 59)
    12a4:	8c 33       	cpi	r24, 0x3C	; 60
    12a6:	24 f4       	brge	.+8      	; 0x12b0 <adjustSec+0x72>
        lcd_write_string_4d((uint8_t *)" ");
        val = tactile_Switch_port & _BV(tactile_Switch_bit);
        _delay_ms(100);
        if (val == 0)
        {
            sec++;
    12a8:	80 93 73 04 	sts	0x0473, r24	; 0x800473 <sec>
    12ac:	01 2f       	mov	r16, r17
    12ae:	03 c0       	rjmp	.+6      	; 0x12b6 <adjustSec+0x78>
            if (sec > 59)
                sec=0;
    12b0:	10 92 73 04 	sts	0x0473, r1	; 0x800473 <sec>
    12b4:	01 2f       	mov	r16, r17
            preLoop = curLoop;
        }
        curLoop++;
    12b6:	1f 5f       	subi	r17, 0xFF	; 255
        lapse = curLoop - preLoop;
    12b8:	81 2f       	mov	r24, r17
    12ba:	80 1b       	sub	r24, r16
        if (lapse > adjustTimeInterval)
    12bc:	89 30       	cpi	r24, 0x09	; 9
    12be:	38 f4       	brcc	.+14     	; 0x12ce <adjustSec+0x90>
    12c0:	81 e1       	ldi	r24, 0x11	; 17
    12c2:	9a e7       	ldi	r25, 0x7A	; 122
    12c4:	01 97       	sbiw	r24, 0x01	; 1
    12c6:	f1 f7       	brne	.-4      	; 0x12c4 <adjustSec+0x86>
    12c8:	00 c0       	rjmp	.+0      	; 0x12ca <adjustSec+0x8c>
    12ca:	00 00       	nop
    12cc:	c2 cf       	rjmp	.-124    	; 0x1252 <adjustSec+0x14>
    12ce:	e1 e1       	ldi	r30, 0x11	; 17
    12d0:	fa e7       	ldi	r31, 0x7A	; 122
    12d2:	31 97       	sbiw	r30, 0x01	; 1
    12d4:	f1 f7       	brne	.-4      	; 0x12d2 <adjustSec+0x94>
    12d6:	00 c0       	rjmp	.+0      	; 0x12d8 <adjustSec+0x9a>
    12d8:	00 00       	nop
            DONE = 1;
        _delay_ms(halfSec/4);
    }//while (!DONE)

}//adjustSec
    12da:	0f 90       	pop	r0
    12dc:	0f 90       	pop	r0
    12de:	0f 90       	pop	r0
    12e0:	df 91       	pop	r29
    12e2:	cf 91       	pop	r28
    12e4:	1f 91       	pop	r17
    12e6:	0f 91       	pop	r16
    12e8:	08 95       	ret

000012ea <countButton>:

    uint8_t val;
    uint8_t DONE=0;


    loopCnt=0;
    12ea:	80 e0       	ldi	r24, 0x00	; 0
    prevLoop=0;
    12ec:	30 e0       	ldi	r19, 0x00	; 0
}//sysClockTest

//-----------------------------------
void countButton()
{
    uint8_t menuCnt=0;
    12ee:	20 e0       	ldi	r18, 0x00	; 0
        //  which is the unit delay of each while loop
        if (lapse > menuSelectInterval)
        {
			// if selected something, then get out of menu selection while loop
            if (menuCnt != 0)
                DONE = 1;
    12f0:	61 e0       	ldi	r22, 0x01	; 1
    12f2:	40 e0       	ldi	r20, 0x00	; 0
                ;
        }
        //if user has not chosen menuCnt > 0, and time lapse over 3sec,
        //forget about it, and call DONE as 2, and eventually go to sleep.
        if ((lapse > menuSelectInterval*2) && (menuCnt ==0))
            DONE = 2;
    12f4:	52 e0       	ldi	r21, 0x02	; 2
    //  it will be accumulated as "menuCnt".
    //If the interval is over 1 sec, which is menuSelectInterval,
    //  then DONE is set to 1.
    while (!DONE)
    {
        loopCnt++;
    12f6:	8f 5f       	subi	r24, 0xFF	; 255
        curLoop = loopCnt;
        lapse = curLoop - prevLoop;
    12f8:	98 2f       	mov	r25, r24
    12fa:	93 1b       	sub	r25, r19

        //menuSelectInterval is
        //  multiple of _delay_ms(halfSec/4)
        //  which is the unit delay of each while loop
        if (lapse > menuSelectInterval)
    12fc:	93 30       	cpi	r25, 0x03	; 3
    12fe:	18 f0       	brcs	.+6      	; 0x1306 <countButton+0x1c>
        {
			// if selected something, then get out of menu selection while loop
            if (menuCnt != 0)
    1300:	21 11       	cpse	r18, r1
    1302:	8b c0       	rjmp	.+278    	; 0x141a <countButton+0x130>
    1304:	75 c0       	rjmp	.+234    	; 0x13f0 <countButton+0x106>
                //wait another 1 sec to get user's menuCnt
                ;
        }
        //if user has not chosen menuCnt > 0, and time lapse over 3sec,
        //forget about it, and call DONE as 2, and eventually go to sleep.
        if ((lapse > menuSelectInterval*2) && (menuCnt ==0))
    1306:	95 30       	cpi	r25, 0x05	; 5
    1308:	08 f4       	brcc	.+2      	; 0x130c <countButton+0x22>
    130a:	7c c0       	rjmp	.+248    	; 0x1404 <countButton+0x11a>
    130c:	22 23       	and	r18, r18
    130e:	09 f4       	brne	.+2      	; 0x1312 <countButton+0x28>
    1310:	6c c0       	rjmp	.+216    	; 0x13ea <countButton+0x100>
    1312:	78 c0       	rjmp	.+240    	; 0x1404 <countButton+0x11a>
            DONE = 2;

      //check if tactile_Switch pressed to 0
      //AVR equivalent to Arduino digitalRead(tactile_Switch_bit)
      val = tactile_Switch_port & _BV(tactile_Switch_bit);
      if (val == 0)
    1314:	1c 99       	sbic	0x03, 4	; 3
    1316:	10 c0       	rjmp	.+32     	; 0x1338 <countButton+0x4e>
    1318:	94 2f       	mov	r25, r20
    131a:	05 c0       	rjmp	.+10     	; 0x1326 <countButton+0x3c>
                ;
        }
        //if user has not chosen menuCnt > 0, and time lapse over 3sec,
        //forget about it, and call DONE as 2, and eventually go to sleep.
        if ((lapse > menuSelectInterval*2) && (menuCnt ==0))
            DONE = 2;
    131c:	95 2f       	mov	r25, r21
    131e:	03 c0       	rjmp	.+6      	; 0x1326 <countButton+0x3c>

      //check if tactile_Switch pressed to 0
      //AVR equivalent to Arduino digitalRead(tactile_Switch_bit)
      val = tactile_Switch_port & _BV(tactile_Switch_bit);
      if (val == 0)
    1320:	94 2f       	mov	r25, r20
    1322:	01 c0       	rjmp	.+2      	; 0x1326 <countButton+0x3c>
        //  which is the unit delay of each while loop
        if (lapse > menuSelectInterval)
        {
			// if selected something, then get out of menu selection while loop
            if (menuCnt != 0)
                DONE = 1;
    1324:	96 2f       	mov	r25, r22
    1326:	e3 e2       	ldi	r30, 0x23	; 35
    1328:	f4 ef       	ldi	r31, 0xF4	; 244
    132a:	31 97       	sbiw	r30, 0x01	; 1
    132c:	f1 f7       	brne	.-4      	; 0x132a <countButton+0x40>
    132e:	00 c0       	rjmp	.+0      	; 0x1330 <countButton+0x46>
    1330:	00 00       	nop
      val = tactile_Switch_port & _BV(tactile_Switch_bit);
      if (val == 0)
      {
        // for debounce
        _delay_ms(halfSec/2);
        menuCnt++;
    1332:	2f 5f       	subi	r18, 0xFF	; 255

        //Pressing the button, lap time calculation should be reset
        //to give 1 sec of time to choose menuCnt
        prevLoop = loopCnt;
    1334:	38 2f       	mov	r19, r24
    1336:	01 c0       	rjmp	.+2      	; 0x133a <countButton+0x50>
    1338:	94 2f       	mov	r25, r20
    133a:	e1 e1       	ldi	r30, 0x11	; 17
    133c:	fa e7       	ldi	r31, 0x7A	; 122
    133e:	31 97       	sbiw	r30, 0x01	; 1
    1340:	f1 f7       	brne	.-4      	; 0x133e <countButton+0x54>
    1342:	00 c0       	rjmp	.+0      	; 0x1344 <countButton+0x5a>
    1344:	00 00       	nop
    //Get menuCnt by counting the button press
    //If pressing the button within 1 second of interval between each press,
    //  it will be accumulated as "menuCnt".
    //If the interval is over 1 sec, which is menuSelectInterval,
    //  then DONE is set to 1.
    while (!DONE)
    1346:	99 23       	and	r25, r25
    1348:	b1 f2       	breq	.-84     	; 0x12f6 <countButton+0xc>

    //menuCnt has been set within 3sec of a PCINT occurence
    //  then, play WDT count for a corresponding alarm period.
    if (DONE)
    {
        if (DONE == 2)
    134a:	92 30       	cpi	r25, 0x02	; 2
    134c:	11 f4       	brne	.+4      	; 0x1352 <countButton+0x68>
            menuCnt = prevMenuCnt;
    134e:	20 91 80 04 	lds	r18, 0x0480	; 0x800480 <prevMenuCnt>
        //visual cue to notifiy user selected menuCnt
        //blinkLED(menuCnt);
        //_delay_ms(halfSec);
        //turnOnLCDpower();
        //lcd_dispON();
        prevMenuCnt = menuCnt;
    1352:	20 93 80 04 	sts	0x0480, r18	; 0x800480 <prevMenuCnt>
        switch (menuCnt)
    1356:	23 30       	cpi	r18, 0x03	; 3
    1358:	91 f0       	breq	.+36     	; 0x137e <countButton+0x94>
    135a:	28 f4       	brcc	.+10     	; 0x1366 <countButton+0x7c>
    135c:	21 30       	cpi	r18, 0x01	; 1
    135e:	49 f0       	breq	.+18     	; 0x1372 <countButton+0x88>
    1360:	22 30       	cpi	r18, 0x02	; 2
    1362:	51 f0       	breq	.+20     	; 0x1378 <countButton+0x8e>
    1364:	2b c0       	rjmp	.+86     	; 0x13bc <countButton+0xd2>
    1366:	25 30       	cpi	r18, 0x05	; 5
    1368:	19 f1       	breq	.+70     	; 0x13b0 <countButton+0xc6>
    136a:	c8 f0       	brcs	.+50     	; 0x139e <countButton+0xb4>
    136c:	26 30       	cpi	r18, 0x06	; 6
    136e:	19 f1       	breq	.+70     	; 0x13b6 <countButton+0xcc>
    1370:	25 c0       	rjmp	.+74     	; 0x13bc <countButton+0xd2>
        {
            case 1:
                //lcd_dispWords();
                //lcd_dispRealClock();
				LCD_TimeDateTempHumid();
    1372:	0e 94 82 01 	call	0x304	; 0x304 <LCD_TimeDateTempHumid>
				//LCD_TimeDate();
				//LCD_TimeDateTempHumid();
                //_delay_ms(2000);
				//getDHT();
                break;
    1376:	24 c0       	rjmp	.+72     	; 0x13c0 <countButton+0xd6>
            case 2:
				LCD_TimeDate();
    1378:	0e 94 71 01 	call	0x2e2	; 0x2e2 <LCD_TimeDate>
                //_delay_ms(2000);
				//getDHT();
                //lcd_showDHT11();
                break;
    137c:	21 c0       	rjmp	.+66     	; 0x13c0 <countButton+0xd6>
            case 3:
				makePDasOutput();
    137e:	0e 94 3f 08 	call	0x107e	; 0x107e <makePDasOutput>
                turnOnLCDBacklight();
    1382:	0e 94 e9 03 	call	0x7d2	; 0x7d2 <turnOnLCDBacklight>
    1386:	ff e9       	ldi	r31, 0x9F	; 159
    1388:	26 e8       	ldi	r18, 0x86	; 134
    138a:	81 e0       	ldi	r24, 0x01	; 1
    138c:	f1 50       	subi	r31, 0x01	; 1
    138e:	20 40       	sbci	r18, 0x00	; 0
    1390:	80 40       	sbci	r24, 0x00	; 0
    1392:	e1 f7       	brne	.-8      	; 0x138c <countButton+0xa2>
    1394:	00 c0       	rjmp	.+0      	; 0x1396 <countButton+0xac>
    1396:	00 00       	nop
				//LCD_TimeDate();
				_delay_ms(500);
                turnOffLCDBacklight();
    1398:	0e 94 fa 03 	call	0x7f4	; 0x7f4 <turnOffLCDBacklight>
                break;
    139c:	11 c0       	rjmp	.+34     	; 0x13c0 <countButton+0xd6>
            case 4:
                //adjustClock();
                adjustMin();
    139e:	0e 94 c9 08 	call	0x1192	; 0x1192 <adjustMin>
                adjustHour();
    13a2:	0e 94 73 08 	call	0x10e6	; 0x10e6 <adjustHour>
                adjustSec();
    13a6:	0e 94 1f 09 	call	0x123e	; 0x123e <adjustSec>
                lcd_dispRealClock();
    13aa:	0e 94 fc 03 	call	0x7f8	; 0x7f8 <lcd_dispRealClock>
                break;
    13ae:	08 c0       	rjmp	.+16     	; 0x13c0 <countButton+0xd6>
            case 5:
                lcd_dispAccumulatedTime();
    13b0:	0e 94 e9 04 	call	0x9d2	; 0x9d2 <lcd_dispAccumulatedTime>
                break;
    13b4:	05 c0       	rjmp	.+10     	; 0x13c0 <countButton+0xd6>
            case 6:
                lcd_dispProgInfo();
    13b6:	0e 94 3e 05 	call	0xa7c	; 0xa7c <lcd_dispProgInfo>
                break;
    13ba:	02 c0       	rjmp	.+4      	; 0x13c0 <countButton+0xd6>
            default:
                lcd_dispMenu();
    13bc:	0e 94 6f 05 	call	0xade	; 0xade <lcd_dispMenu>
    13c0:	9f e3       	ldi	r25, 0x3F	; 63
    13c2:	e2 e4       	ldi	r30, 0x42	; 66
    13c4:	ff e0       	ldi	r31, 0x0F	; 15
    13c6:	91 50       	subi	r25, 0x01	; 1
    13c8:	e0 40       	sbci	r30, 0x00	; 0
    13ca:	f0 40       	sbci	r31, 0x00	; 0
    13cc:	e1 f7       	brne	.-8      	; 0x13c6 <countButton+0xdc>
    13ce:	00 c0       	rjmp	.+0      	; 0x13d0 <countButton+0xe6>
    13d0:	00 00       	nop
                //getDHT();
        }//switch (menuCnt)

        _delay_ms(5000); //show time of menu result

		makePDasInput(); //make LCD in deep power save mode
    13d2:	0e 94 5a 08 	call	0x10b4	; 0x10b4 <makePDasInput>
		pwrOn = 0;
    13d6:	10 92 78 04 	sts	0x0478, r1	; 0x800478 <pwrOn>
    13da:	08 95       	ret
    13dc:	81 e1       	ldi	r24, 0x11	; 17
    13de:	9a e7       	ldi	r25, 0x7A	; 122
    13e0:	01 97       	sbiw	r24, 0x01	; 1
    13e2:	f1 f7       	brne	.-4      	; 0x13e0 <countButton+0xf6>
    13e4:	00 c0       	rjmp	.+0      	; 0x13e6 <countButton+0xfc>
    13e6:	00 00       	nop
    13e8:	b2 cf       	rjmp	.-156    	; 0x134e <countButton+0x64>
            DONE = 2;

      //check if tactile_Switch pressed to 0
      //AVR equivalent to Arduino digitalRead(tactile_Switch_bit)
      val = tactile_Switch_port & _BV(tactile_Switch_bit);
      if (val == 0)
    13ea:	1c 99       	sbic	0x03, 4	; 3
    13ec:	f7 cf       	rjmp	.-18     	; 0x13dc <countButton+0xf2>
    13ee:	96 cf       	rjmp	.-212    	; 0x131c <countButton+0x32>
                //wait another 1 sec to get user's menuCnt
                ;
        }
        //if user has not chosen menuCnt > 0, and time lapse over 3sec,
        //forget about it, and call DONE as 2, and eventually go to sleep.
        if ((lapse > menuSelectInterval*2) && (menuCnt ==0))
    13f0:	95 30       	cpi	r25, 0x05	; 5
    13f2:	d8 f7       	brcc	.-10     	; 0x13ea <countButton+0x100>
    13f4:	8f cf       	rjmp	.-226    	; 0x1314 <countButton+0x2a>
    13f6:	e1 e1       	ldi	r30, 0x11	; 17
    13f8:	fa e7       	ldi	r31, 0x7A	; 122
    13fa:	31 97       	sbiw	r30, 0x01	; 1
    13fc:	f1 f7       	brne	.-4      	; 0x13fa <countButton+0x110>
    13fe:	00 c0       	rjmp	.+0      	; 0x1400 <countButton+0x116>
    1400:	00 00       	nop
    1402:	79 cf       	rjmp	.-270    	; 0x12f6 <countButton+0xc>
            DONE = 2;

      //check if tactile_Switch pressed to 0
      //AVR equivalent to Arduino digitalRead(tactile_Switch_bit)
      val = tactile_Switch_port & _BV(tactile_Switch_bit);
      if (val == 0)
    1404:	1c 99       	sbic	0x03, 4	; 3
    1406:	f7 cf       	rjmp	.-18     	; 0x13f6 <countButton+0x10c>
    1408:	8b cf       	rjmp	.-234    	; 0x1320 <countButton+0x36>
    140a:	81 e1       	ldi	r24, 0x11	; 17
    140c:	9a e7       	ldi	r25, 0x7A	; 122
    140e:	01 97       	sbiw	r24, 0x01	; 1
    1410:	f1 f7       	brne	.-4      	; 0x140e <countButton+0x124>
    1412:	00 c0       	rjmp	.+0      	; 0x1414 <countButton+0x12a>
    1414:	00 00       	nop
        //  which is the unit delay of each while loop
        if (lapse > menuSelectInterval)
        {
			// if selected something, then get out of menu selection while loop
            if (menuCnt != 0)
                DONE = 1;
    1416:	91 e0       	ldi	r25, 0x01	; 1
    1418:	98 cf       	rjmp	.-208    	; 0x134a <countButton+0x60>
            DONE = 2;

      //check if tactile_Switch pressed to 0
      //AVR equivalent to Arduino digitalRead(tactile_Switch_bit)
      val = tactile_Switch_port & _BV(tactile_Switch_bit);
      if (val == 0)
    141a:	1c 99       	sbic	0x03, 4	; 3
    141c:	f6 cf       	rjmp	.-20     	; 0x140a <countButton+0x120>
    141e:	82 cf       	rjmp	.-252    	; 0x1324 <countButton+0x3a>

00001420 <__divmodqi4>:
    1420:	87 fb       	bst	r24, 7
    1422:	08 2e       	mov	r0, r24
    1424:	06 26       	eor	r0, r22
    1426:	87 fd       	sbrc	r24, 7
    1428:	81 95       	neg	r24
    142a:	67 fd       	sbrc	r22, 7
    142c:	61 95       	neg	r22
    142e:	0e 94 47 0a 	call	0x148e	; 0x148e <__udivmodqi4>
    1432:	0e f4       	brtc	.+2      	; 0x1436 <__divmodqi4_1>
    1434:	91 95       	neg	r25

00001436 <__divmodqi4_1>:
    1436:	07 fc       	sbrc	r0, 7
    1438:	81 95       	neg	r24

0000143a <__divmodqi4_exit>:
    143a:	08 95       	ret

0000143c <__divmodhi4>:
    143c:	97 fb       	bst	r25, 7
    143e:	07 2e       	mov	r0, r23
    1440:	16 f4       	brtc	.+4      	; 0x1446 <__divmodhi4+0xa>
    1442:	00 94       	com	r0
    1444:	07 d0       	rcall	.+14     	; 0x1454 <__divmodhi4_neg1>
    1446:	77 fd       	sbrc	r23, 7
    1448:	09 d0       	rcall	.+18     	; 0x145c <__divmodhi4_neg2>
    144a:	0e 94 53 0a 	call	0x14a6	; 0x14a6 <__udivmodhi4>
    144e:	07 fc       	sbrc	r0, 7
    1450:	05 d0       	rcall	.+10     	; 0x145c <__divmodhi4_neg2>
    1452:	3e f4       	brtc	.+14     	; 0x1462 <__divmodhi4_exit>

00001454 <__divmodhi4_neg1>:
    1454:	90 95       	com	r25
    1456:	81 95       	neg	r24
    1458:	9f 4f       	sbci	r25, 0xFF	; 255
    145a:	08 95       	ret

0000145c <__divmodhi4_neg2>:
    145c:	70 95       	com	r23
    145e:	61 95       	neg	r22
    1460:	7f 4f       	sbci	r23, 0xFF	; 255

00001462 <__divmodhi4_exit>:
    1462:	08 95       	ret

00001464 <__tablejump2__>:
    1464:	ee 0f       	add	r30, r30
    1466:	ff 1f       	adc	r31, r31
    1468:	05 90       	lpm	r0, Z+
    146a:	f4 91       	lpm	r31, Z
    146c:	e0 2d       	mov	r30, r0
    146e:	09 94       	ijmp

00001470 <__umulhisi3>:
    1470:	a2 9f       	mul	r26, r18
    1472:	b0 01       	movw	r22, r0
    1474:	b3 9f       	mul	r27, r19
    1476:	c0 01       	movw	r24, r0
    1478:	a3 9f       	mul	r26, r19
    147a:	70 0d       	add	r23, r0
    147c:	81 1d       	adc	r24, r1
    147e:	11 24       	eor	r1, r1
    1480:	91 1d       	adc	r25, r1
    1482:	b2 9f       	mul	r27, r18
    1484:	70 0d       	add	r23, r0
    1486:	81 1d       	adc	r24, r1
    1488:	11 24       	eor	r1, r1
    148a:	91 1d       	adc	r25, r1
    148c:	08 95       	ret

0000148e <__udivmodqi4>:
    148e:	99 1b       	sub	r25, r25
    1490:	79 e0       	ldi	r23, 0x09	; 9
    1492:	04 c0       	rjmp	.+8      	; 0x149c <__udivmodqi4_ep>

00001494 <__udivmodqi4_loop>:
    1494:	99 1f       	adc	r25, r25
    1496:	96 17       	cp	r25, r22
    1498:	08 f0       	brcs	.+2      	; 0x149c <__udivmodqi4_ep>
    149a:	96 1b       	sub	r25, r22

0000149c <__udivmodqi4_ep>:
    149c:	88 1f       	adc	r24, r24
    149e:	7a 95       	dec	r23
    14a0:	c9 f7       	brne	.-14     	; 0x1494 <__udivmodqi4_loop>
    14a2:	80 95       	com	r24
    14a4:	08 95       	ret

000014a6 <__udivmodhi4>:
    14a6:	aa 1b       	sub	r26, r26
    14a8:	bb 1b       	sub	r27, r27
    14aa:	51 e1       	ldi	r21, 0x11	; 17
    14ac:	07 c0       	rjmp	.+14     	; 0x14bc <__udivmodhi4_ep>

000014ae <__udivmodhi4_loop>:
    14ae:	aa 1f       	adc	r26, r26
    14b0:	bb 1f       	adc	r27, r27
    14b2:	a6 17       	cp	r26, r22
    14b4:	b7 07       	cpc	r27, r23
    14b6:	10 f0       	brcs	.+4      	; 0x14bc <__udivmodhi4_ep>
    14b8:	a6 1b       	sub	r26, r22
    14ba:	b7 0b       	sbc	r27, r23

000014bc <__udivmodhi4_ep>:
    14bc:	88 1f       	adc	r24, r24
    14be:	99 1f       	adc	r25, r25
    14c0:	5a 95       	dec	r21
    14c2:	a9 f7       	brne	.-22     	; 0x14ae <__udivmodhi4_loop>
    14c4:	80 95       	com	r24
    14c6:	90 95       	com	r25
    14c8:	bc 01       	movw	r22, r24
    14ca:	cd 01       	movw	r24, r26
    14cc:	08 95       	ret

000014ce <atoi>:
    14ce:	fc 01       	movw	r30, r24
    14d0:	88 27       	eor	r24, r24
    14d2:	99 27       	eor	r25, r25
    14d4:	e8 94       	clt
    14d6:	21 91       	ld	r18, Z+
    14d8:	20 32       	cpi	r18, 0x20	; 32
    14da:	e9 f3       	breq	.-6      	; 0x14d6 <atoi+0x8>
    14dc:	29 30       	cpi	r18, 0x09	; 9
    14de:	10 f0       	brcs	.+4      	; 0x14e4 <atoi+0x16>
    14e0:	2e 30       	cpi	r18, 0x0E	; 14
    14e2:	c8 f3       	brcs	.-14     	; 0x14d6 <atoi+0x8>
    14e4:	2b 32       	cpi	r18, 0x2B	; 43
    14e6:	41 f0       	breq	.+16     	; 0x14f8 <atoi+0x2a>
    14e8:	2d 32       	cpi	r18, 0x2D	; 45
    14ea:	39 f4       	brne	.+14     	; 0x14fa <atoi+0x2c>
    14ec:	68 94       	set
    14ee:	04 c0       	rjmp	.+8      	; 0x14f8 <atoi+0x2a>
    14f0:	0e 94 cc 0a 	call	0x1598	; 0x1598 <__mulhi_const_10>
    14f4:	82 0f       	add	r24, r18
    14f6:	91 1d       	adc	r25, r1
    14f8:	21 91       	ld	r18, Z+
    14fa:	20 53       	subi	r18, 0x30	; 48
    14fc:	2a 30       	cpi	r18, 0x0A	; 10
    14fe:	c0 f3       	brcs	.-16     	; 0x14f0 <atoi+0x22>
    1500:	1e f4       	brtc	.+6      	; 0x1508 <atoi+0x3a>
    1502:	90 95       	com	r25
    1504:	81 95       	neg	r24
    1506:	9f 4f       	sbci	r25, 0xFF	; 255
    1508:	08 95       	ret

0000150a <strtok>:
    150a:	4a e6       	ldi	r20, 0x6A	; 106
    150c:	54 e0       	ldi	r21, 0x04	; 4
    150e:	0e 94 9a 0a 	call	0x1534	; 0x1534 <strtok_r>
    1512:	08 95       	ret

00001514 <strcmp>:
    1514:	fb 01       	movw	r30, r22
    1516:	dc 01       	movw	r26, r24
    1518:	8d 91       	ld	r24, X+
    151a:	01 90       	ld	r0, Z+
    151c:	80 19       	sub	r24, r0
    151e:	01 10       	cpse	r0, r1
    1520:	d9 f3       	breq	.-10     	; 0x1518 <strcmp+0x4>
    1522:	99 0b       	sbc	r25, r25
    1524:	08 95       	ret

00001526 <strcpy>:
    1526:	fb 01       	movw	r30, r22
    1528:	dc 01       	movw	r26, r24
    152a:	01 90       	ld	r0, Z+
    152c:	0d 92       	st	X+, r0
    152e:	00 20       	and	r0, r0
    1530:	e1 f7       	brne	.-8      	; 0x152a <strcpy+0x4>
    1532:	08 95       	ret

00001534 <strtok_r>:
    1534:	fa 01       	movw	r30, r20
    1536:	a1 91       	ld	r26, Z+
    1538:	b0 81       	ld	r27, Z
    153a:	00 97       	sbiw	r24, 0x00	; 0
    153c:	19 f4       	brne	.+6      	; 0x1544 <strtok_r+0x10>
    153e:	10 97       	sbiw	r26, 0x00	; 0
    1540:	e1 f0       	breq	.+56     	; 0x157a <strtok_r+0x46>
    1542:	cd 01       	movw	r24, r26
    1544:	dc 01       	movw	r26, r24
    1546:	cd 01       	movw	r24, r26
    1548:	0d 90       	ld	r0, X+
    154a:	00 20       	and	r0, r0
    154c:	11 f4       	brne	.+4      	; 0x1552 <strtok_r+0x1e>
    154e:	c0 01       	movw	r24, r0
    1550:	13 c0       	rjmp	.+38     	; 0x1578 <strtok_r+0x44>
    1552:	fb 01       	movw	r30, r22
    1554:	21 91       	ld	r18, Z+
    1556:	22 23       	and	r18, r18
    1558:	19 f0       	breq	.+6      	; 0x1560 <strtok_r+0x2c>
    155a:	20 15       	cp	r18, r0
    155c:	d9 f7       	brne	.-10     	; 0x1554 <strtok_r+0x20>
    155e:	f3 cf       	rjmp	.-26     	; 0x1546 <strtok_r+0x12>
    1560:	fb 01       	movw	r30, r22
    1562:	21 91       	ld	r18, Z+
    1564:	20 15       	cp	r18, r0
    1566:	19 f4       	brne	.+6      	; 0x156e <strtok_r+0x3a>
    1568:	1e 92       	st	-X, r1
    156a:	11 96       	adiw	r26, 0x01	; 1
    156c:	06 c0       	rjmp	.+12     	; 0x157a <strtok_r+0x46>
    156e:	22 23       	and	r18, r18
    1570:	c1 f7       	brne	.-16     	; 0x1562 <strtok_r+0x2e>
    1572:	0d 90       	ld	r0, X+
    1574:	00 20       	and	r0, r0
    1576:	a1 f7       	brne	.-24     	; 0x1560 <strtok_r+0x2c>
    1578:	d0 01       	movw	r26, r0
    157a:	fa 01       	movw	r30, r20
    157c:	a1 93       	st	Z+, r26
    157e:	b0 83       	st	Z, r27
    1580:	08 95       	ret

00001582 <__itoa_ncheck>:
    1582:	bb 27       	eor	r27, r27
    1584:	4a 30       	cpi	r20, 0x0A	; 10
    1586:	31 f4       	brne	.+12     	; 0x1594 <__itoa_ncheck+0x12>
    1588:	99 23       	and	r25, r25
    158a:	22 f4       	brpl	.+8      	; 0x1594 <__itoa_ncheck+0x12>
    158c:	bd e2       	ldi	r27, 0x2D	; 45
    158e:	90 95       	com	r25
    1590:	81 95       	neg	r24
    1592:	9f 4f       	sbci	r25, 0xFF	; 255
    1594:	0c 94 d5 0a 	jmp	0x15aa	; 0x15aa <__utoa_common>

00001598 <__mulhi_const_10>:
    1598:	7a e0       	ldi	r23, 0x0A	; 10
    159a:	97 9f       	mul	r25, r23
    159c:	90 2d       	mov	r25, r0
    159e:	87 9f       	mul	r24, r23
    15a0:	80 2d       	mov	r24, r0
    15a2:	91 0d       	add	r25, r1
    15a4:	11 24       	eor	r1, r1
    15a6:	08 95       	ret

000015a8 <__utoa_ncheck>:
    15a8:	bb 27       	eor	r27, r27

000015aa <__utoa_common>:
    15aa:	fb 01       	movw	r30, r22
    15ac:	55 27       	eor	r21, r21
    15ae:	aa 27       	eor	r26, r26
    15b0:	88 0f       	add	r24, r24
    15b2:	99 1f       	adc	r25, r25
    15b4:	aa 1f       	adc	r26, r26
    15b6:	a4 17       	cp	r26, r20
    15b8:	10 f0       	brcs	.+4      	; 0x15be <__utoa_common+0x14>
    15ba:	a4 1b       	sub	r26, r20
    15bc:	83 95       	inc	r24
    15be:	50 51       	subi	r21, 0x10	; 16
    15c0:	b9 f7       	brne	.-18     	; 0x15b0 <__utoa_common+0x6>
    15c2:	a0 5d       	subi	r26, 0xD0	; 208
    15c4:	aa 33       	cpi	r26, 0x3A	; 58
    15c6:	08 f0       	brcs	.+2      	; 0x15ca <__utoa_common+0x20>
    15c8:	a9 5d       	subi	r26, 0xD9	; 217
    15ca:	a1 93       	st	Z+, r26
    15cc:	00 97       	sbiw	r24, 0x00	; 0
    15ce:	79 f7       	brne	.-34     	; 0x15ae <__utoa_common+0x4>
    15d0:	b1 11       	cpse	r27, r1
    15d2:	b1 93       	st	Z+, r27
    15d4:	11 92       	st	Z+, r1
    15d6:	cb 01       	movw	r24, r22
    15d8:	0c 94 ee 0a 	jmp	0x15dc	; 0x15dc <strrev>

000015dc <strrev>:
    15dc:	dc 01       	movw	r26, r24
    15de:	fc 01       	movw	r30, r24
    15e0:	67 2f       	mov	r22, r23
    15e2:	71 91       	ld	r23, Z+
    15e4:	77 23       	and	r23, r23
    15e6:	e1 f7       	brne	.-8      	; 0x15e0 <strrev+0x4>
    15e8:	32 97       	sbiw	r30, 0x02	; 2
    15ea:	04 c0       	rjmp	.+8      	; 0x15f4 <strrev+0x18>
    15ec:	7c 91       	ld	r23, X
    15ee:	6d 93       	st	X+, r22
    15f0:	70 83       	st	Z, r23
    15f2:	62 91       	ld	r22, -Z
    15f4:	ae 17       	cp	r26, r30
    15f6:	bf 07       	cpc	r27, r31
    15f8:	c8 f3       	brcs	.-14     	; 0x15ec <strrev+0x10>
    15fa:	08 95       	ret

000015fc <_exit>:
    15fc:	f8 94       	cli

000015fe <__stop_program>:
    15fe:	ff cf       	rjmp	.-2      	; 0x15fe <__stop_program>
